
ctarget:     file format elf64-x86-64


Disassembly of section .init:

0000000000400cb0 <_init>:
  400cb0:	48 83 ec 08          	sub    $0x8,%rsp
  400cb4:	48 8b 05 3d 43 20 00 	mov    0x20433d(%rip),%rax        # 604ff8 <__gmon_start__>
  400cbb:	48 85 c0             	test   %rax,%rax
  400cbe:	74 02                	je     400cc2 <_init+0x12>
  400cc0:	ff d0                	callq  *%rax
  400cc2:	48 83 c4 08          	add    $0x8,%rsp
  400cc6:	c3                   	retq   

Disassembly of section .plt:

0000000000400cd0 <.plt>:
  400cd0:	ff 35 32 43 20 00    	pushq  0x204332(%rip)        # 605008 <_GLOBAL_OFFSET_TABLE_+0x8>
  400cd6:	ff 25 34 43 20 00    	jmpq   *0x204334(%rip)        # 605010 <_GLOBAL_OFFSET_TABLE_+0x10>
  400cdc:	0f 1f 40 00          	nopl   0x0(%rax)

0000000000400ce0 <strcasecmp@plt>:
  400ce0:	ff 25 32 43 20 00    	jmpq   *0x204332(%rip)        # 605018 <strcasecmp@GLIBC_2.2.5>
  400ce6:	68 00 00 00 00       	pushq  $0x0
  400ceb:	e9 e0 ff ff ff       	jmpq   400cd0 <.plt>

0000000000400cf0 <__errno_location@plt>:
  400cf0:	ff 25 2a 43 20 00    	jmpq   *0x20432a(%rip)        # 605020 <__errno_location@GLIBC_2.2.5>
  400cf6:	68 01 00 00 00       	pushq  $0x1
  400cfb:	e9 d0 ff ff ff       	jmpq   400cd0 <.plt>

0000000000400d00 <srandom@plt>:
  400d00:	ff 25 22 43 20 00    	jmpq   *0x204322(%rip)        # 605028 <srandom@GLIBC_2.2.5>
  400d06:	68 02 00 00 00       	pushq  $0x2
  400d0b:	e9 c0 ff ff ff       	jmpq   400cd0 <.plt>

0000000000400d10 <strncpy@plt>:
  400d10:	ff 25 1a 43 20 00    	jmpq   *0x20431a(%rip)        # 605030 <strncpy@GLIBC_2.2.5>
  400d16:	68 03 00 00 00       	pushq  $0x3
  400d1b:	e9 b0 ff ff ff       	jmpq   400cd0 <.plt>

0000000000400d20 <strncmp@plt>:
  400d20:	ff 25 12 43 20 00    	jmpq   *0x204312(%rip)        # 605038 <strncmp@GLIBC_2.2.5>
  400d26:	68 04 00 00 00       	pushq  $0x4
  400d2b:	e9 a0 ff ff ff       	jmpq   400cd0 <.plt>

0000000000400d30 <strcpy@plt>:
  400d30:	ff 25 0a 43 20 00    	jmpq   *0x20430a(%rip)        # 605040 <strcpy@GLIBC_2.2.5>
  400d36:	68 05 00 00 00       	pushq  $0x5
  400d3b:	e9 90 ff ff ff       	jmpq   400cd0 <.plt>

0000000000400d40 <puts@plt>:
  400d40:	ff 25 02 43 20 00    	jmpq   *0x204302(%rip)        # 605048 <puts@GLIBC_2.2.5>
  400d46:	68 06 00 00 00       	pushq  $0x6
  400d4b:	e9 80 ff ff ff       	jmpq   400cd0 <.plt>

0000000000400d50 <write@plt>:
  400d50:	ff 25 fa 42 20 00    	jmpq   *0x2042fa(%rip)        # 605050 <write@GLIBC_2.2.5>
  400d56:	68 07 00 00 00       	pushq  $0x7
  400d5b:	e9 70 ff ff ff       	jmpq   400cd0 <.plt>

0000000000400d60 <mmap@plt>:
  400d60:	ff 25 f2 42 20 00    	jmpq   *0x2042f2(%rip)        # 605058 <mmap@GLIBC_2.2.5>
  400d66:	68 08 00 00 00       	pushq  $0x8
  400d6b:	e9 60 ff ff ff       	jmpq   400cd0 <.plt>

0000000000400d70 <memset@plt>:
  400d70:	ff 25 ea 42 20 00    	jmpq   *0x2042ea(%rip)        # 605060 <memset@GLIBC_2.2.5>
  400d76:	68 09 00 00 00       	pushq  $0x9
  400d7b:	e9 50 ff ff ff       	jmpq   400cd0 <.plt>

0000000000400d80 <alarm@plt>:
  400d80:	ff 25 e2 42 20 00    	jmpq   *0x2042e2(%rip)        # 605068 <alarm@GLIBC_2.2.5>
  400d86:	68 0a 00 00 00       	pushq  $0xa
  400d8b:	e9 40 ff ff ff       	jmpq   400cd0 <.plt>

0000000000400d90 <close@plt>:
  400d90:	ff 25 da 42 20 00    	jmpq   *0x2042da(%rip)        # 605070 <close@GLIBC_2.2.5>
  400d96:	68 0b 00 00 00       	pushq  $0xb
  400d9b:	e9 30 ff ff ff       	jmpq   400cd0 <.plt>

0000000000400da0 <read@plt>:
  400da0:	ff 25 d2 42 20 00    	jmpq   *0x2042d2(%rip)        # 605078 <read@GLIBC_2.2.5>
  400da6:	68 0c 00 00 00       	pushq  $0xc
  400dab:	e9 20 ff ff ff       	jmpq   400cd0 <.plt>

0000000000400db0 <strcmp@plt>:
  400db0:	ff 25 ca 42 20 00    	jmpq   *0x2042ca(%rip)        # 605080 <strcmp@GLIBC_2.2.5>
  400db6:	68 0d 00 00 00       	pushq  $0xd
  400dbb:	e9 10 ff ff ff       	jmpq   400cd0 <.plt>

0000000000400dc0 <signal@plt>:
  400dc0:	ff 25 c2 42 20 00    	jmpq   *0x2042c2(%rip)        # 605088 <signal@GLIBC_2.2.5>
  400dc6:	68 0e 00 00 00       	pushq  $0xe
  400dcb:	e9 00 ff ff ff       	jmpq   400cd0 <.plt>

0000000000400dd0 <gethostbyname@plt>:
  400dd0:	ff 25 ba 42 20 00    	jmpq   *0x2042ba(%rip)        # 605090 <gethostbyname@GLIBC_2.2.5>
  400dd6:	68 0f 00 00 00       	pushq  $0xf
  400ddb:	e9 f0 fe ff ff       	jmpq   400cd0 <.plt>

0000000000400de0 <__memmove_chk@plt>:
  400de0:	ff 25 b2 42 20 00    	jmpq   *0x2042b2(%rip)        # 605098 <__memmove_chk@GLIBC_2.3.4>
  400de6:	68 10 00 00 00       	pushq  $0x10
  400deb:	e9 e0 fe ff ff       	jmpq   400cd0 <.plt>

0000000000400df0 <strtol@plt>:
  400df0:	ff 25 aa 42 20 00    	jmpq   *0x2042aa(%rip)        # 6050a0 <strtol@GLIBC_2.2.5>
  400df6:	68 11 00 00 00       	pushq  $0x11
  400dfb:	e9 d0 fe ff ff       	jmpq   400cd0 <.plt>

0000000000400e00 <memcpy@plt>:
  400e00:	ff 25 a2 42 20 00    	jmpq   *0x2042a2(%rip)        # 6050a8 <memcpy@GLIBC_2.14>
  400e06:	68 12 00 00 00       	pushq  $0x12
  400e0b:	e9 c0 fe ff ff       	jmpq   400cd0 <.plt>

0000000000400e10 <time@plt>:
  400e10:	ff 25 9a 42 20 00    	jmpq   *0x20429a(%rip)        # 6050b0 <time@GLIBC_2.2.5>
  400e16:	68 13 00 00 00       	pushq  $0x13
  400e1b:	e9 b0 fe ff ff       	jmpq   400cd0 <.plt>

0000000000400e20 <random@plt>:
  400e20:	ff 25 92 42 20 00    	jmpq   *0x204292(%rip)        # 6050b8 <random@GLIBC_2.2.5>
  400e26:	68 14 00 00 00       	pushq  $0x14
  400e2b:	e9 a0 fe ff ff       	jmpq   400cd0 <.plt>

0000000000400e30 <_IO_getc@plt>:
  400e30:	ff 25 8a 42 20 00    	jmpq   *0x20428a(%rip)        # 6050c0 <_IO_getc@GLIBC_2.2.5>
  400e36:	68 15 00 00 00       	pushq  $0x15
  400e3b:	e9 90 fe ff ff       	jmpq   400cd0 <.plt>

0000000000400e40 <__isoc99_sscanf@plt>:
  400e40:	ff 25 82 42 20 00    	jmpq   *0x204282(%rip)        # 6050c8 <__isoc99_sscanf@GLIBC_2.7>
  400e46:	68 16 00 00 00       	pushq  $0x16
  400e4b:	e9 80 fe ff ff       	jmpq   400cd0 <.plt>

0000000000400e50 <munmap@plt>:
  400e50:	ff 25 7a 42 20 00    	jmpq   *0x20427a(%rip)        # 6050d0 <munmap@GLIBC_2.2.5>
  400e56:	68 17 00 00 00       	pushq  $0x17
  400e5b:	e9 70 fe ff ff       	jmpq   400cd0 <.plt>

0000000000400e60 <__printf_chk@plt>:
  400e60:	ff 25 72 42 20 00    	jmpq   *0x204272(%rip)        # 6050d8 <__printf_chk@GLIBC_2.3.4>
  400e66:	68 18 00 00 00       	pushq  $0x18
  400e6b:	e9 60 fe ff ff       	jmpq   400cd0 <.plt>

0000000000400e70 <fopen@plt>:
  400e70:	ff 25 6a 42 20 00    	jmpq   *0x20426a(%rip)        # 6050e0 <fopen@GLIBC_2.2.5>
  400e76:	68 19 00 00 00       	pushq  $0x19
  400e7b:	e9 50 fe ff ff       	jmpq   400cd0 <.plt>

0000000000400e80 <getopt@plt>:
  400e80:	ff 25 62 42 20 00    	jmpq   *0x204262(%rip)        # 6050e8 <getopt@GLIBC_2.2.5>
  400e86:	68 1a 00 00 00       	pushq  $0x1a
  400e8b:	e9 40 fe ff ff       	jmpq   400cd0 <.plt>

0000000000400e90 <strtoul@plt>:
  400e90:	ff 25 5a 42 20 00    	jmpq   *0x20425a(%rip)        # 6050f0 <strtoul@GLIBC_2.2.5>
  400e96:	68 1b 00 00 00       	pushq  $0x1b
  400e9b:	e9 30 fe ff ff       	jmpq   400cd0 <.plt>

0000000000400ea0 <gethostname@plt>:
  400ea0:	ff 25 52 42 20 00    	jmpq   *0x204252(%rip)        # 6050f8 <gethostname@GLIBC_2.2.5>
  400ea6:	68 1c 00 00 00       	pushq  $0x1c
  400eab:	e9 20 fe ff ff       	jmpq   400cd0 <.plt>

0000000000400eb0 <exit@plt>:
  400eb0:	ff 25 4a 42 20 00    	jmpq   *0x20424a(%rip)        # 605100 <exit@GLIBC_2.2.5>
  400eb6:	68 1d 00 00 00       	pushq  $0x1d
  400ebb:	e9 10 fe ff ff       	jmpq   400cd0 <.plt>

0000000000400ec0 <connect@plt>:
  400ec0:	ff 25 42 42 20 00    	jmpq   *0x204242(%rip)        # 605108 <connect@GLIBC_2.2.5>
  400ec6:	68 1e 00 00 00       	pushq  $0x1e
  400ecb:	e9 00 fe ff ff       	jmpq   400cd0 <.plt>

0000000000400ed0 <__fprintf_chk@plt>:
  400ed0:	ff 25 3a 42 20 00    	jmpq   *0x20423a(%rip)        # 605110 <__fprintf_chk@GLIBC_2.3.4>
  400ed6:	68 1f 00 00 00       	pushq  $0x1f
  400edb:	e9 f0 fd ff ff       	jmpq   400cd0 <.plt>

0000000000400ee0 <__sprintf_chk@plt>:
  400ee0:	ff 25 32 42 20 00    	jmpq   *0x204232(%rip)        # 605118 <__sprintf_chk@GLIBC_2.3.4>
  400ee6:	68 20 00 00 00       	pushq  $0x20
  400eeb:	e9 e0 fd ff ff       	jmpq   400cd0 <.plt>

0000000000400ef0 <socket@plt>:
  400ef0:	ff 25 2a 42 20 00    	jmpq   *0x20422a(%rip)        # 605120 <socket@GLIBC_2.2.5>
  400ef6:	68 21 00 00 00       	pushq  $0x21
  400efb:	e9 d0 fd ff ff       	jmpq   400cd0 <.plt>

Disassembly of section .text:

0000000000400f00 <_start>:
  400f00:	31 ed                	xor    %ebp,%ebp
  400f02:	49 89 d1             	mov    %rdx,%r9
  400f05:	5e                   	pop    %rsi
  400f06:	48 89 e2             	mov    %rsp,%rdx
  400f09:	48 83 e4 f0          	and    $0xfffffffffffffff0,%rsp
  400f0d:	50                   	push   %rax
  400f0e:	54                   	push   %rsp
  400f0f:	49 c7 c0 80 31 40 00 	mov    $0x403180,%r8
  400f16:	48 c7 c1 10 31 40 00 	mov    $0x403110,%rcx
  400f1d:	48 c7 c7 0e 12 40 00 	mov    $0x40120e,%rdi
  400f24:	ff 15 c6 40 20 00    	callq  *0x2040c6(%rip)        # 604ff0 <__libc_start_main@GLIBC_2.2.5>
  400f2a:	f4                   	hlt    
  400f2b:	0f 1f 44 00 00       	nopl   0x0(%rax,%rax,1)

0000000000400f30 <_dl_relocate_static_pie>:
  400f30:	f3 c3                	repz retq 
  400f32:	66 2e 0f 1f 84 00 00 	nopw   %cs:0x0(%rax,%rax,1)
  400f39:	00 00 00 
  400f3c:	0f 1f 40 00          	nopl   0x0(%rax)

0000000000400f40 <deregister_tm_clones>:
  400f40:	55                   	push   %rbp
  400f41:	b8 b0 54 60 00       	mov    $0x6054b0,%eax
  400f46:	48 3d b0 54 60 00    	cmp    $0x6054b0,%rax
  400f4c:	48 89 e5             	mov    %rsp,%rbp
  400f4f:	74 17                	je     400f68 <deregister_tm_clones+0x28>
  400f51:	b8 00 00 00 00       	mov    $0x0,%eax
  400f56:	48 85 c0             	test   %rax,%rax
  400f59:	74 0d                	je     400f68 <deregister_tm_clones+0x28>
  400f5b:	5d                   	pop    %rbp
  400f5c:	bf b0 54 60 00       	mov    $0x6054b0,%edi
  400f61:	ff e0                	jmpq   *%rax
  400f63:	0f 1f 44 00 00       	nopl   0x0(%rax,%rax,1)
  400f68:	5d                   	pop    %rbp
  400f69:	c3                   	retq   
  400f6a:	66 0f 1f 44 00 00    	nopw   0x0(%rax,%rax,1)

0000000000400f70 <register_tm_clones>:
  400f70:	be b0 54 60 00       	mov    $0x6054b0,%esi
  400f75:	55                   	push   %rbp
  400f76:	48 81 ee b0 54 60 00 	sub    $0x6054b0,%rsi
  400f7d:	48 89 e5             	mov    %rsp,%rbp
  400f80:	48 c1 fe 03          	sar    $0x3,%rsi
  400f84:	48 89 f0             	mov    %rsi,%rax
  400f87:	48 c1 e8 3f          	shr    $0x3f,%rax
  400f8b:	48 01 c6             	add    %rax,%rsi
  400f8e:	48 d1 fe             	sar    %rsi
  400f91:	74 15                	je     400fa8 <register_tm_clones+0x38>
  400f93:	b8 00 00 00 00       	mov    $0x0,%eax
  400f98:	48 85 c0             	test   %rax,%rax
  400f9b:	74 0b                	je     400fa8 <register_tm_clones+0x38>
  400f9d:	5d                   	pop    %rbp
  400f9e:	bf b0 54 60 00       	mov    $0x6054b0,%edi
  400fa3:	ff e0                	jmpq   *%rax
  400fa5:	0f 1f 00             	nopl   (%rax)
  400fa8:	5d                   	pop    %rbp
  400fa9:	c3                   	retq   
  400faa:	66 0f 1f 44 00 00    	nopw   0x0(%rax,%rax,1)

0000000000400fb0 <__do_global_dtors_aux>:
  400fb0:	80 3d 31 45 20 00 00 	cmpb   $0x0,0x204531(%rip)        # 6054e8 <completed.7698>
  400fb7:	75 17                	jne    400fd0 <__do_global_dtors_aux+0x20>
  400fb9:	55                   	push   %rbp
  400fba:	48 89 e5             	mov    %rsp,%rbp
  400fbd:	e8 7e ff ff ff       	callq  400f40 <deregister_tm_clones>
  400fc2:	c6 05 1f 45 20 00 01 	movb   $0x1,0x20451f(%rip)        # 6054e8 <completed.7698>
  400fc9:	5d                   	pop    %rbp
  400fca:	c3                   	retq   
  400fcb:	0f 1f 44 00 00       	nopl   0x0(%rax,%rax,1)
  400fd0:	f3 c3                	repz retq 
  400fd2:	0f 1f 40 00          	nopl   0x0(%rax)
  400fd6:	66 2e 0f 1f 84 00 00 	nopw   %cs:0x0(%rax,%rax,1)
  400fdd:	00 00 00 

0000000000400fe0 <frame_dummy>:
  400fe0:	55                   	push   %rbp
  400fe1:	48 89 e5             	mov    %rsp,%rbp
  400fe4:	5d                   	pop    %rbp
  400fe5:	eb 89                	jmp    400f70 <register_tm_clones>

0000000000400fe7 <usage>:
  400fe7:	48 83 ec 08          	sub    $0x8,%rsp
  400feb:	48 89 fa             	mov    %rdi,%rdx
  400fee:	83 3d 33 45 20 00 00 	cmpl   $0x0,0x204533(%rip)        # 605528 <is_checker>
  400ff5:	74 50                	je     401047 <usage+0x60>
  400ff7:	48 8d 35 9a 21 00 00 	lea    0x219a(%rip),%rsi        # 403198 <_IO_stdin_used+0x8>
  400ffe:	bf 01 00 00 00       	mov    $0x1,%edi
  401003:	b8 00 00 00 00       	mov    $0x0,%eax
  401008:	e8 53 fe ff ff       	callq  400e60 <__printf_chk@plt>
  40100d:	48 8d 3d bc 21 00 00 	lea    0x21bc(%rip),%rdi        # 4031d0 <_IO_stdin_used+0x40>
  401014:	e8 27 fd ff ff       	callq  400d40 <puts@plt>
  401019:	48 8d 3d 40 23 00 00 	lea    0x2340(%rip),%rdi        # 403360 <_IO_stdin_used+0x1d0>
  401020:	e8 1b fd ff ff       	callq  400d40 <puts@plt>
  401025:	48 8d 3d cc 21 00 00 	lea    0x21cc(%rip),%rdi        # 4031f8 <_IO_stdin_used+0x68>
  40102c:	e8 0f fd ff ff       	callq  400d40 <puts@plt>
  401031:	48 8d 3d 42 23 00 00 	lea    0x2342(%rip),%rdi        # 40337a <_IO_stdin_used+0x1ea>
  401038:	e8 03 fd ff ff       	callq  400d40 <puts@plt>
  40103d:	bf 00 00 00 00       	mov    $0x0,%edi
  401042:	e8 69 fe ff ff       	callq  400eb0 <exit@plt>
  401047:	48 8d 35 48 23 00 00 	lea    0x2348(%rip),%rsi        # 403396 <_IO_stdin_used+0x206>
  40104e:	bf 01 00 00 00       	mov    $0x1,%edi
  401053:	b8 00 00 00 00       	mov    $0x0,%eax
  401058:	e8 03 fe ff ff       	callq  400e60 <__printf_chk@plt>
  40105d:	48 8d 3d bc 21 00 00 	lea    0x21bc(%rip),%rdi        # 403220 <_IO_stdin_used+0x90>
  401064:	e8 d7 fc ff ff       	callq  400d40 <puts@plt>
  401069:	48 8d 3d d8 21 00 00 	lea    0x21d8(%rip),%rdi        # 403248 <_IO_stdin_used+0xb8>
  401070:	e8 cb fc ff ff       	callq  400d40 <puts@plt>
  401075:	48 8d 3d 38 23 00 00 	lea    0x2338(%rip),%rdi        # 4033b4 <_IO_stdin_used+0x224>
  40107c:	e8 bf fc ff ff       	callq  400d40 <puts@plt>
  401081:	eb ba                	jmp    40103d <usage+0x56>

0000000000401083 <initialize_target>:
  401083:	55                   	push   %rbp
  401084:	53                   	push   %rbx
  401085:	48 81 ec 18 21 00 00 	sub    $0x2118,%rsp
  40108c:	89 f5                	mov    %esi,%ebp
  40108e:	64 48 8b 04 25 28 00 	mov    %fs:0x28,%rax
  401095:	00 00 
  401097:	48 89 84 24 08 21 00 	mov    %rax,0x2108(%rsp)
  40109e:	00 
  40109f:	31 c0                	xor    %eax,%eax
  4010a1:	89 3d 71 44 20 00    	mov    %edi,0x204471(%rip)        # 605518 <check_level>
  4010a7:	8b 3d a3 40 20 00    	mov    0x2040a3(%rip),%edi        # 605150 <target_id>
  4010ad:	e8 3c 20 00 00       	callq  4030ee <gencookie>
  4010b2:	89 05 6c 44 20 00    	mov    %eax,0x20446c(%rip)        # 605524 <cookie>
  4010b8:	89 c7                	mov    %eax,%edi
  4010ba:	e8 2f 20 00 00       	callq  4030ee <gencookie>
  4010bf:	89 05 5b 44 20 00    	mov    %eax,0x20445b(%rip)        # 605520 <authkey>
  4010c5:	8b 05 85 40 20 00    	mov    0x204085(%rip),%eax        # 605150 <target_id>
  4010cb:	8d 78 01             	lea    0x1(%rax),%edi
  4010ce:	e8 2d fc ff ff       	callq  400d00 <srandom@plt>
  4010d3:	e8 48 fd ff ff       	callq  400e20 <random@plt>
  4010d8:	89 c7                	mov    %eax,%edi
  4010da:	e8 93 03 00 00       	callq  401472 <scramble>
  4010df:	89 c3                	mov    %eax,%ebx
  4010e1:	85 ed                	test   %ebp,%ebp
  4010e3:	75 54                	jne    401139 <initialize_target+0xb6>
  4010e5:	b8 00 00 00 00       	mov    $0x0,%eax
  4010ea:	01 d8                	add    %ebx,%eax
  4010ec:	0f b7 c0             	movzwl %ax,%eax
  4010ef:	8d 04 c5 00 01 00 00 	lea    0x100(,%rax,8),%eax
  4010f6:	89 c0                	mov    %eax,%eax
  4010f8:	48 89 05 a1 43 20 00 	mov    %rax,0x2043a1(%rip)        # 6054a0 <buf_offset>
  4010ff:	c6 05 42 50 20 00 63 	movb   $0x63,0x205042(%rip)        # 606148 <target_prefix>
  401106:	83 3d 9b 43 20 00 00 	cmpl   $0x0,0x20439b(%rip)        # 6054a8 <notify>
  40110d:	74 09                	je     401118 <initialize_target+0x95>
  40110f:	83 3d 12 44 20 00 00 	cmpl   $0x0,0x204412(%rip)        # 605528 <is_checker>
  401116:	74 39                	je     401151 <initialize_target+0xce>
  401118:	48 8b 84 24 08 21 00 	mov    0x2108(%rsp),%rax
  40111f:	00 
  401120:	64 48 33 04 25 28 00 	xor    %fs:0x28,%rax
  401127:	00 00 
  401129:	0f 85 da 00 00 00    	jne    401209 <initialize_target+0x186>
  40112f:	48 81 c4 18 21 00 00 	add    $0x2118,%rsp
  401136:	5b                   	pop    %rbx
  401137:	5d                   	pop    %rbp
  401138:	c3                   	retq   
  401139:	bf 00 00 00 00       	mov    $0x0,%edi
  40113e:	e8 cd fc ff ff       	callq  400e10 <time@plt>
  401143:	89 c7                	mov    %eax,%edi
  401145:	e8 b6 fb ff ff       	callq  400d00 <srandom@plt>
  40114a:	e8 d1 fc ff ff       	callq  400e20 <random@plt>
  40114f:	eb 99                	jmp    4010ea <initialize_target+0x67>
  401151:	48 89 e7             	mov    %rsp,%rdi
  401154:	be 00 01 00 00       	mov    $0x100,%esi
  401159:	e8 42 fd ff ff       	callq  400ea0 <gethostname@plt>
  40115e:	89 c5                	mov    %eax,%ebp
  401160:	85 c0                	test   %eax,%eax
  401162:	75 26                	jne    40118a <initialize_target+0x107>
  401164:	89 c3                	mov    %eax,%ebx
  401166:	48 63 c3             	movslq %ebx,%rax
  401169:	48 8d 15 10 40 20 00 	lea    0x204010(%rip),%rdx        # 605180 <host_table>
  401170:	48 8b 3c c2          	mov    (%rdx,%rax,8),%rdi
  401174:	48 85 ff             	test   %rdi,%rdi
  401177:	74 2c                	je     4011a5 <initialize_target+0x122>
  401179:	48 89 e6             	mov    %rsp,%rsi
  40117c:	e8 5f fb ff ff       	callq  400ce0 <strcasecmp@plt>
  401181:	85 c0                	test   %eax,%eax
  401183:	74 1b                	je     4011a0 <initialize_target+0x11d>
  401185:	83 c3 01             	add    $0x1,%ebx
  401188:	eb dc                	jmp    401166 <initialize_target+0xe3>
  40118a:	48 8d 3d e7 20 00 00 	lea    0x20e7(%rip),%rdi        # 403278 <_IO_stdin_used+0xe8>
  401191:	e8 aa fb ff ff       	callq  400d40 <puts@plt>
  401196:	bf 08 00 00 00       	mov    $0x8,%edi
  40119b:	e8 10 fd ff ff       	callq  400eb0 <exit@plt>
  4011a0:	bd 01 00 00 00       	mov    $0x1,%ebp
  4011a5:	85 ed                	test   %ebp,%ebp
  4011a7:	74 3d                	je     4011e6 <initialize_target+0x163>
  4011a9:	48 8d bc 24 00 01 00 	lea    0x100(%rsp),%rdi
  4011b0:	00 
  4011b1:	e8 68 1c 00 00       	callq  402e1e <init_driver>
  4011b6:	85 c0                	test   %eax,%eax
  4011b8:	0f 89 5a ff ff ff    	jns    401118 <initialize_target+0x95>
  4011be:	48 8d 94 24 00 01 00 	lea    0x100(%rsp),%rdx
  4011c5:	00 
  4011c6:	48 8d 35 23 21 00 00 	lea    0x2123(%rip),%rsi        # 4032f0 <_IO_stdin_used+0x160>
  4011cd:	bf 01 00 00 00       	mov    $0x1,%edi
  4011d2:	b8 00 00 00 00       	mov    $0x0,%eax
  4011d7:	e8 84 fc ff ff       	callq  400e60 <__printf_chk@plt>
  4011dc:	bf 08 00 00 00       	mov    $0x8,%edi
  4011e1:	e8 ca fc ff ff       	callq  400eb0 <exit@plt>
  4011e6:	48 89 e2             	mov    %rsp,%rdx
  4011e9:	48 8d 35 c0 20 00 00 	lea    0x20c0(%rip),%rsi        # 4032b0 <_IO_stdin_used+0x120>
  4011f0:	bf 01 00 00 00       	mov    $0x1,%edi
  4011f5:	b8 00 00 00 00       	mov    $0x0,%eax
  4011fa:	e8 61 fc ff ff       	callq  400e60 <__printf_chk@plt>
  4011ff:	bf 08 00 00 00       	mov    $0x8,%edi
  401204:	e8 a7 fc ff ff       	callq  400eb0 <exit@plt>
  401209:	e8 80 0f 00 00       	callq  40218e <__stack_chk_fail>

000000000040120e <main>:
  40120e:	41 56                	push   %r14
  401210:	41 55                	push   %r13
  401212:	41 54                	push   %r12
  401214:	55                   	push   %rbp
  401215:	53                   	push   %rbx
  401216:	48 83 ec 60          	sub    $0x60,%rsp
  40121a:	89 fd                	mov    %edi,%ebp
  40121c:	48 89 f3             	mov    %rsi,%rbx
  40121f:	64 48 8b 04 25 28 00 	mov    %fs:0x28,%rax
  401226:	00 00 
  401228:	48 89 44 24 58       	mov    %rax,0x58(%rsp)
  40122d:	31 c0                	xor    %eax,%eax
  40122f:	48 b8 53 70 69 72 69 	movabs $0x6465746972697053,%rax
  401236:	74 65 64 
  401239:	48 89 04 24          	mov    %rax,(%rsp)
  40123d:	c7 44 24 08 41 77 61 	movl   $0x79617741,0x8(%rsp)
  401244:	79 
  401245:	66 c7 44 24 0c 43 4e 	movw   $0x4e43,0xc(%rsp)
  40124c:	c6 44 24 0e 00       	movb   $0x0,0xe(%rsp)
  401251:	48 c7 c6 8f 20 40 00 	mov    $0x40208f,%rsi
  401258:	bf 0b 00 00 00       	mov    $0xb,%edi
  40125d:	e8 5e fb ff ff       	callq  400dc0 <signal@plt>
  401262:	48 c7 c6 3b 20 40 00 	mov    $0x40203b,%rsi
  401269:	bf 07 00 00 00       	mov    $0x7,%edi
  40126e:	e8 4d fb ff ff       	callq  400dc0 <signal@plt>
  401273:	48 c7 c6 e3 20 40 00 	mov    $0x4020e3,%rsi
  40127a:	bf 04 00 00 00       	mov    $0x4,%edi
  40127f:	e8 3c fb ff ff       	callq  400dc0 <signal@plt>
  401284:	83 3d 9d 42 20 00 00 	cmpl   $0x0,0x20429d(%rip)        # 605528 <is_checker>
  40128b:	75 26                	jne    4012b3 <main+0xa5>
  40128d:	4c 8d 25 39 21 00 00 	lea    0x2139(%rip),%r12        # 4033cd <_IO_stdin_used+0x23d>
  401294:	48 8b 05 25 42 20 00 	mov    0x204225(%rip),%rax        # 6054c0 <stdin@@GLIBC_2.2.5>
  40129b:	48 89 05 6e 42 20 00 	mov    %rax,0x20426e(%rip)        # 605510 <infile>
  4012a2:	41 bd 00 00 00 00    	mov    $0x0,%r13d
  4012a8:	41 be 00 00 00 00    	mov    $0x0,%r14d
  4012ae:	e9 8d 00 00 00       	jmpq   401340 <main+0x132>
  4012b3:	48 c7 c6 37 21 40 00 	mov    $0x402137,%rsi
  4012ba:	bf 0e 00 00 00       	mov    $0xe,%edi
  4012bf:	e8 fc fa ff ff       	callq  400dc0 <signal@plt>
  4012c4:	bf 02 00 00 00       	mov    $0x2,%edi
  4012c9:	e8 b2 fa ff ff       	callq  400d80 <alarm@plt>
  4012ce:	4c 8d 25 fd 20 00 00 	lea    0x20fd(%rip),%r12        # 4033d2 <_IO_stdin_used+0x242>
  4012d5:	eb bd                	jmp    401294 <main+0x86>
  4012d7:	48 8b 3b             	mov    (%rbx),%rdi
  4012da:	e8 08 fd ff ff       	callq  400fe7 <usage>
  4012df:	48 8d 35 ba 21 00 00 	lea    0x21ba(%rip),%rsi        # 4034a0 <_IO_stdin_used+0x310>
  4012e6:	48 8b 3d db 41 20 00 	mov    0x2041db(%rip),%rdi        # 6054c8 <optarg@@GLIBC_2.2.5>
  4012ed:	e8 7e fb ff ff       	callq  400e70 <fopen@plt>
  4012f2:	48 89 05 17 42 20 00 	mov    %rax,0x204217(%rip)        # 605510 <infile>
  4012f9:	48 85 c0             	test   %rax,%rax
  4012fc:	75 42                	jne    401340 <main+0x132>
  4012fe:	48 8b 0d c3 41 20 00 	mov    0x2041c3(%rip),%rcx        # 6054c8 <optarg@@GLIBC_2.2.5>
  401305:	48 8d 15 d0 20 00 00 	lea    0x20d0(%rip),%rdx        # 4033dc <_IO_stdin_used+0x24c>
  40130c:	be 01 00 00 00       	mov    $0x1,%esi
  401311:	48 8b 3d c8 41 20 00 	mov    0x2041c8(%rip),%rdi        # 6054e0 <stderr@@GLIBC_2.2.5>
  401318:	e8 b3 fb ff ff       	callq  400ed0 <__fprintf_chk@plt>
  40131d:	b8 01 00 00 00       	mov    $0x1,%eax
  401322:	e9 29 01 00 00       	jmpq   401450 <main+0x242>
  401327:	ba 10 00 00 00       	mov    $0x10,%edx
  40132c:	be 00 00 00 00       	mov    $0x0,%esi
  401331:	48 8b 3d 90 41 20 00 	mov    0x204190(%rip),%rdi        # 6054c8 <optarg@@GLIBC_2.2.5>
  401338:	e8 53 fb ff ff       	callq  400e90 <strtoul@plt>
  40133d:	41 89 c6             	mov    %eax,%r14d
  401340:	4c 89 e2             	mov    %r12,%rdx
  401343:	48 89 de             	mov    %rbx,%rsi
  401346:	89 ef                	mov    %ebp,%edi
  401348:	e8 33 fb ff ff       	callq  400e80 <getopt@plt>
  40134d:	3c ff                	cmp    $0xff,%al
  40134f:	74 78                	je     4013c9 <main+0x1bb>
  401351:	0f be d0             	movsbl %al,%edx
  401354:	83 e8 61             	sub    $0x61,%eax
  401357:	3c 14                	cmp    $0x14,%al
  401359:	77 50                	ja     4013ab <main+0x19d>
  40135b:	0f b6 c0             	movzbl %al,%eax
  40135e:	48 8d 0d b7 20 00 00 	lea    0x20b7(%rip),%rcx        # 40341c <_IO_stdin_used+0x28c>
  401365:	48 63 04 81          	movslq (%rcx,%rax,4),%rax
  401369:	48 01 c8             	add    %rcx,%rax
  40136c:	ff e0                	jmpq   *%rax
  40136e:	ba 0a 00 00 00       	mov    $0xa,%edx
  401373:	be 00 00 00 00       	mov    $0x0,%esi
  401378:	48 8b 3d 49 41 20 00 	mov    0x204149(%rip),%rdi        # 6054c8 <optarg@@GLIBC_2.2.5>
  40137f:	e8 6c fa ff ff       	callq  400df0 <strtol@plt>
  401384:	41 89 c5             	mov    %eax,%r13d
  401387:	eb b7                	jmp    401340 <main+0x132>
  401389:	c7 05 15 41 20 00 00 	movl   $0x0,0x204115(%rip)        # 6054a8 <notify>
  401390:	00 00 00 
  401393:	eb ab                	jmp    401340 <main+0x132>
  401395:	48 89 e7             	mov    %rsp,%rdi
  401398:	ba 50 00 00 00       	mov    $0x50,%edx
  40139d:	48 8b 35 24 41 20 00 	mov    0x204124(%rip),%rsi        # 6054c8 <optarg@@GLIBC_2.2.5>
  4013a4:	e8 67 f9 ff ff       	callq  400d10 <strncpy@plt>
  4013a9:	eb 95                	jmp    401340 <main+0x132>
  4013ab:	48 8d 35 47 20 00 00 	lea    0x2047(%rip),%rsi        # 4033f9 <_IO_stdin_used+0x269>
  4013b2:	bf 01 00 00 00       	mov    $0x1,%edi
  4013b7:	b8 00 00 00 00       	mov    $0x0,%eax
  4013bc:	e8 9f fa ff ff       	callq  400e60 <__printf_chk@plt>
  4013c1:	48 8b 3b             	mov    (%rbx),%rdi
  4013c4:	e8 1e fc ff ff       	callq  400fe7 <usage>
  4013c9:	be 00 00 00 00       	mov    $0x0,%esi
  4013ce:	44 89 ef             	mov    %r13d,%edi
  4013d1:	e8 ad fc ff ff       	callq  401083 <initialize_target>
  4013d6:	83 3d 4b 41 20 00 00 	cmpl   $0x0,0x20414b(%rip)        # 605528 <is_checker>
  4013dd:	74 3f                	je     40141e <main+0x210>
  4013df:	44 39 35 3a 41 20 00 	cmp    %r14d,0x20413a(%rip)        # 605520 <authkey>
  4013e6:	75 13                	jne    4013fb <main+0x1ed>
  4013e8:	48 89 e7             	mov    %rsp,%rdi
  4013eb:	48 8b 35 6e 3d 20 00 	mov    0x203d6e(%rip),%rsi        # 605160 <user_id>
  4013f2:	e8 b9 f9 ff ff       	callq  400db0 <strcmp@plt>
  4013f7:	85 c0                	test   %eax,%eax
  4013f9:	74 23                	je     40141e <main+0x210>
  4013fb:	44 89 f2             	mov    %r14d,%edx
  4013fe:	48 8d 35 13 1f 00 00 	lea    0x1f13(%rip),%rsi        # 403318 <_IO_stdin_used+0x188>
  401405:	bf 01 00 00 00       	mov    $0x1,%edi
  40140a:	b8 00 00 00 00       	mov    $0x0,%eax
  40140f:	e8 4c fa ff ff       	callq  400e60 <__printf_chk@plt>
  401414:	b8 00 00 00 00       	mov    $0x0,%eax
  401419:	e8 85 08 00 00       	callq  401ca3 <check_fail>
  40141e:	8b 15 00 41 20 00    	mov    0x204100(%rip),%edx        # 605524 <cookie>
  401424:	48 8d 35 e1 1f 00 00 	lea    0x1fe1(%rip),%rsi        # 40340c <_IO_stdin_used+0x27c>
  40142b:	bf 01 00 00 00       	mov    $0x1,%edi
  401430:	b8 00 00 00 00       	mov    $0x0,%eax
  401435:	e8 26 fa ff ff       	callq  400e60 <__printf_chk@plt>
  40143a:	be 00 00 00 00       	mov    $0x0,%esi
  40143f:	48 8b 3d 5a 40 20 00 	mov    0x20405a(%rip),%rdi        # 6054a0 <buf_offset>
  401446:	e8 63 0e 00 00       	callq  4022ae <stable_launch>
  40144b:	b8 00 00 00 00       	mov    $0x0,%eax
  401450:	48 8b 5c 24 58       	mov    0x58(%rsp),%rbx
  401455:	64 48 33 1c 25 28 00 	xor    %fs:0x28,%rbx
  40145c:	00 00 
  40145e:	75 0d                	jne    40146d <main+0x25f>
  401460:	48 83 c4 60          	add    $0x60,%rsp
  401464:	5b                   	pop    %rbx
  401465:	5d                   	pop    %rbp
  401466:	41 5c                	pop    %r12
  401468:	41 5d                	pop    %r13
  40146a:	41 5e                	pop    %r14
  40146c:	c3                   	retq   
  40146d:	e8 1c 0d 00 00       	callq  40218e <__stack_chk_fail>

0000000000401472 <scramble>:
  401472:	48 83 ec 38          	sub    $0x38,%rsp
  401476:	64 48 8b 04 25 28 00 	mov    %fs:0x28,%rax
  40147d:	00 00 
  40147f:	48 89 44 24 28       	mov    %rax,0x28(%rsp)
  401484:	31 c0                	xor    %eax,%eax
  401486:	eb 10                	jmp    401498 <scramble+0x26>
  401488:	69 d0 34 6f 00 00    	imul   $0x6f34,%eax,%edx
  40148e:	01 fa                	add    %edi,%edx
  401490:	89 c1                	mov    %eax,%ecx
  401492:	89 14 8c             	mov    %edx,(%rsp,%rcx,4)
  401495:	83 c0 01             	add    $0x1,%eax
  401498:	83 f8 09             	cmp    $0x9,%eax
  40149b:	76 eb                	jbe    401488 <scramble+0x16>
  40149d:	8b 44 24 08          	mov    0x8(%rsp),%eax
  4014a1:	69 c0 ee 09 00 00    	imul   $0x9ee,%eax,%eax
  4014a7:	89 44 24 08          	mov    %eax,0x8(%rsp)
  4014ab:	8b 44 24 0c          	mov    0xc(%rsp),%eax
  4014af:	69 c0 b2 90 00 00    	imul   $0x90b2,%eax,%eax
  4014b5:	89 44 24 0c          	mov    %eax,0xc(%rsp)
  4014b9:	8b 44 24 24          	mov    0x24(%rsp),%eax
  4014bd:	69 c0 88 15 00 00    	imul   $0x1588,%eax,%eax
  4014c3:	89 44 24 24          	mov    %eax,0x24(%rsp)
  4014c7:	8b 44 24 0c          	mov    0xc(%rsp),%eax
  4014cb:	69 c0 e5 e4 00 00    	imul   $0xe4e5,%eax,%eax
  4014d1:	89 44 24 0c          	mov    %eax,0xc(%rsp)
  4014d5:	8b 44 24 10          	mov    0x10(%rsp),%eax
  4014d9:	69 c0 77 4b 00 00    	imul   $0x4b77,%eax,%eax
  4014df:	89 44 24 10          	mov    %eax,0x10(%rsp)
  4014e3:	8b 44 24 1c          	mov    0x1c(%rsp),%eax
  4014e7:	69 c0 5d 94 00 00    	imul   $0x945d,%eax,%eax
  4014ed:	89 44 24 1c          	mov    %eax,0x1c(%rsp)
  4014f1:	8b 44 24 04          	mov    0x4(%rsp),%eax
  4014f5:	69 c0 83 54 00 00    	imul   $0x5483,%eax,%eax
  4014fb:	89 44 24 04          	mov    %eax,0x4(%rsp)
  4014ff:	8b 44 24 20          	mov    0x20(%rsp),%eax
  401503:	69 c0 68 1d 00 00    	imul   $0x1d68,%eax,%eax
  401509:	89 44 24 20          	mov    %eax,0x20(%rsp)
  40150d:	8b 44 24 14          	mov    0x14(%rsp),%eax
  401511:	69 c0 b8 c2 00 00    	imul   $0xc2b8,%eax,%eax
  401517:	89 44 24 14          	mov    %eax,0x14(%rsp)
  40151b:	8b 44 24 0c          	mov    0xc(%rsp),%eax
  40151f:	69 c0 68 b1 00 00    	imul   $0xb168,%eax,%eax
  401525:	89 44 24 0c          	mov    %eax,0xc(%rsp)
  401529:	8b 44 24 1c          	mov    0x1c(%rsp),%eax
  40152d:	69 c0 1f ae 00 00    	imul   $0xae1f,%eax,%eax
  401533:	89 44 24 1c          	mov    %eax,0x1c(%rsp)
  401537:	8b 44 24 1c          	mov    0x1c(%rsp),%eax
  40153b:	69 c0 eb eb 00 00    	imul   $0xebeb,%eax,%eax
  401541:	89 44 24 1c          	mov    %eax,0x1c(%rsp)
  401545:	8b 44 24 0c          	mov    0xc(%rsp),%eax
  401549:	69 c0 6b 57 00 00    	imul   $0x576b,%eax,%eax
  40154f:	89 44 24 0c          	mov    %eax,0xc(%rsp)
  401553:	8b 44 24 04          	mov    0x4(%rsp),%eax
  401557:	69 c0 0b 86 00 00    	imul   $0x860b,%eax,%eax
  40155d:	89 44 24 04          	mov    %eax,0x4(%rsp)
  401561:	8b 04 24             	mov    (%rsp),%eax
  401564:	69 c0 cf 27 00 00    	imul   $0x27cf,%eax,%eax
  40156a:	89 04 24             	mov    %eax,(%rsp)
  40156d:	8b 04 24             	mov    (%rsp),%eax
  401570:	69 c0 62 b6 00 00    	imul   $0xb662,%eax,%eax
  401576:	89 04 24             	mov    %eax,(%rsp)
  401579:	8b 44 24 20          	mov    0x20(%rsp),%eax
  40157d:	69 c0 3c 81 00 00    	imul   $0x813c,%eax,%eax
  401583:	89 44 24 20          	mov    %eax,0x20(%rsp)
  401587:	8b 44 24 18          	mov    0x18(%rsp),%eax
  40158b:	69 c0 31 e3 00 00    	imul   $0xe331,%eax,%eax
  401591:	89 44 24 18          	mov    %eax,0x18(%rsp)
  401595:	8b 44 24 08          	mov    0x8(%rsp),%eax
  401599:	69 c0 ee 7f 00 00    	imul   $0x7fee,%eax,%eax
  40159f:	89 44 24 08          	mov    %eax,0x8(%rsp)
  4015a3:	8b 44 24 24          	mov    0x24(%rsp),%eax
  4015a7:	69 c0 5b 06 00 00    	imul   $0x65b,%eax,%eax
  4015ad:	89 44 24 24          	mov    %eax,0x24(%rsp)
  4015b1:	8b 04 24             	mov    (%rsp),%eax
  4015b4:	69 c0 41 5d 00 00    	imul   $0x5d41,%eax,%eax
  4015ba:	89 04 24             	mov    %eax,(%rsp)
  4015bd:	8b 44 24 20          	mov    0x20(%rsp),%eax
  4015c1:	69 c0 8e 79 00 00    	imul   $0x798e,%eax,%eax
  4015c7:	89 44 24 20          	mov    %eax,0x20(%rsp)
  4015cb:	8b 04 24             	mov    (%rsp),%eax
  4015ce:	69 c0 67 3d 00 00    	imul   $0x3d67,%eax,%eax
  4015d4:	89 04 24             	mov    %eax,(%rsp)
  4015d7:	8b 44 24 14          	mov    0x14(%rsp),%eax
  4015db:	69 c0 f8 98 00 00    	imul   $0x98f8,%eax,%eax
  4015e1:	89 44 24 14          	mov    %eax,0x14(%rsp)
  4015e5:	8b 44 24 1c          	mov    0x1c(%rsp),%eax
  4015e9:	69 c0 30 ac 00 00    	imul   $0xac30,%eax,%eax
  4015ef:	89 44 24 1c          	mov    %eax,0x1c(%rsp)
  4015f3:	8b 44 24 0c          	mov    0xc(%rsp),%eax
  4015f7:	69 c0 eb ec 00 00    	imul   $0xeceb,%eax,%eax
  4015fd:	89 44 24 0c          	mov    %eax,0xc(%rsp)
  401601:	8b 44 24 10          	mov    0x10(%rsp),%eax
  401605:	69 c0 04 83 00 00    	imul   $0x8304,%eax,%eax
  40160b:	89 44 24 10          	mov    %eax,0x10(%rsp)
  40160f:	8b 44 24 08          	mov    0x8(%rsp),%eax
  401613:	69 c0 70 a7 00 00    	imul   $0xa770,%eax,%eax
  401619:	89 44 24 08          	mov    %eax,0x8(%rsp)
  40161d:	8b 44 24 08          	mov    0x8(%rsp),%eax
  401621:	69 c0 85 39 00 00    	imul   $0x3985,%eax,%eax
  401627:	89 44 24 08          	mov    %eax,0x8(%rsp)
  40162b:	8b 44 24 1c          	mov    0x1c(%rsp),%eax
  40162f:	69 c0 9d 21 00 00    	imul   $0x219d,%eax,%eax
  401635:	89 44 24 1c          	mov    %eax,0x1c(%rsp)
  401639:	8b 44 24 04          	mov    0x4(%rsp),%eax
  40163d:	69 c0 72 fe 00 00    	imul   $0xfe72,%eax,%eax
  401643:	89 44 24 04          	mov    %eax,0x4(%rsp)
  401647:	8b 44 24 10          	mov    0x10(%rsp),%eax
  40164b:	69 c0 13 93 00 00    	imul   $0x9313,%eax,%eax
  401651:	89 44 24 10          	mov    %eax,0x10(%rsp)
  401655:	8b 44 24 18          	mov    0x18(%rsp),%eax
  401659:	69 c0 14 1f 00 00    	imul   $0x1f14,%eax,%eax
  40165f:	89 44 24 18          	mov    %eax,0x18(%rsp)
  401663:	8b 04 24             	mov    (%rsp),%eax
  401666:	69 c0 72 16 00 00    	imul   $0x1672,%eax,%eax
  40166c:	89 04 24             	mov    %eax,(%rsp)
  40166f:	8b 44 24 14          	mov    0x14(%rsp),%eax
  401673:	69 c0 5b 3e 00 00    	imul   $0x3e5b,%eax,%eax
  401679:	89 44 24 14          	mov    %eax,0x14(%rsp)
  40167d:	8b 04 24             	mov    (%rsp),%eax
  401680:	69 c0 67 6a 00 00    	imul   $0x6a67,%eax,%eax
  401686:	89 04 24             	mov    %eax,(%rsp)
  401689:	8b 44 24 20          	mov    0x20(%rsp),%eax
  40168d:	69 c0 86 b7 00 00    	imul   $0xb786,%eax,%eax
  401693:	89 44 24 20          	mov    %eax,0x20(%rsp)
  401697:	8b 44 24 24          	mov    0x24(%rsp),%eax
  40169b:	69 c0 60 4d 00 00    	imul   $0x4d60,%eax,%eax
  4016a1:	89 44 24 24          	mov    %eax,0x24(%rsp)
  4016a5:	8b 44 24 18          	mov    0x18(%rsp),%eax
  4016a9:	69 c0 ec 7a 00 00    	imul   $0x7aec,%eax,%eax
  4016af:	89 44 24 18          	mov    %eax,0x18(%rsp)
  4016b3:	8b 44 24 18          	mov    0x18(%rsp),%eax
  4016b7:	69 c0 0d f5 00 00    	imul   $0xf50d,%eax,%eax
  4016bd:	89 44 24 18          	mov    %eax,0x18(%rsp)
  4016c1:	8b 44 24 10          	mov    0x10(%rsp),%eax
  4016c5:	69 c0 b9 30 00 00    	imul   $0x30b9,%eax,%eax
  4016cb:	89 44 24 10          	mov    %eax,0x10(%rsp)
  4016cf:	8b 04 24             	mov    (%rsp),%eax
  4016d2:	69 c0 6b 81 00 00    	imul   $0x816b,%eax,%eax
  4016d8:	89 04 24             	mov    %eax,(%rsp)
  4016db:	8b 44 24 08          	mov    0x8(%rsp),%eax
  4016df:	69 c0 ce ba 00 00    	imul   $0xbace,%eax,%eax
  4016e5:	89 44 24 08          	mov    %eax,0x8(%rsp)
  4016e9:	8b 44 24 04          	mov    0x4(%rsp),%eax
  4016ed:	69 c0 2e 8e 00 00    	imul   $0x8e2e,%eax,%eax
  4016f3:	89 44 24 04          	mov    %eax,0x4(%rsp)
  4016f7:	8b 44 24 1c          	mov    0x1c(%rsp),%eax
  4016fb:	69 c0 58 56 00 00    	imul   $0x5658,%eax,%eax
  401701:	89 44 24 1c          	mov    %eax,0x1c(%rsp)
  401705:	8b 44 24 18          	mov    0x18(%rsp),%eax
  401709:	69 c0 a8 55 00 00    	imul   $0x55a8,%eax,%eax
  40170f:	89 44 24 18          	mov    %eax,0x18(%rsp)
  401713:	8b 44 24 24          	mov    0x24(%rsp),%eax
  401717:	69 c0 cb 87 00 00    	imul   $0x87cb,%eax,%eax
  40171d:	89 44 24 24          	mov    %eax,0x24(%rsp)
  401721:	8b 44 24 0c          	mov    0xc(%rsp),%eax
  401725:	69 c0 78 d4 00 00    	imul   $0xd478,%eax,%eax
  40172b:	89 44 24 0c          	mov    %eax,0xc(%rsp)
  40172f:	8b 44 24 10          	mov    0x10(%rsp),%eax
  401733:	69 c0 00 5f 00 00    	imul   $0x5f00,%eax,%eax
  401739:	89 44 24 10          	mov    %eax,0x10(%rsp)
  40173d:	8b 44 24 24          	mov    0x24(%rsp),%eax
  401741:	69 c0 e1 45 00 00    	imul   $0x45e1,%eax,%eax
  401747:	89 44 24 24          	mov    %eax,0x24(%rsp)
  40174b:	8b 44 24 10          	mov    0x10(%rsp),%eax
  40174f:	69 c0 b7 07 00 00    	imul   $0x7b7,%eax,%eax
  401755:	89 44 24 10          	mov    %eax,0x10(%rsp)
  401759:	8b 44 24 1c          	mov    0x1c(%rsp),%eax
  40175d:	69 c0 f7 38 00 00    	imul   $0x38f7,%eax,%eax
  401763:	89 44 24 1c          	mov    %eax,0x1c(%rsp)
  401767:	8b 44 24 24          	mov    0x24(%rsp),%eax
  40176b:	69 c0 3e 94 00 00    	imul   $0x943e,%eax,%eax
  401771:	89 44 24 24          	mov    %eax,0x24(%rsp)
  401775:	8b 44 24 14          	mov    0x14(%rsp),%eax
  401779:	69 c0 2b b4 00 00    	imul   $0xb42b,%eax,%eax
  40177f:	89 44 24 14          	mov    %eax,0x14(%rsp)
  401783:	8b 44 24 18          	mov    0x18(%rsp),%eax
  401787:	69 c0 af 6c 00 00    	imul   $0x6caf,%eax,%eax
  40178d:	89 44 24 18          	mov    %eax,0x18(%rsp)
  401791:	8b 44 24 0c          	mov    0xc(%rsp),%eax
  401795:	69 c0 47 36 00 00    	imul   $0x3647,%eax,%eax
  40179b:	89 44 24 0c          	mov    %eax,0xc(%rsp)
  40179f:	8b 44 24 0c          	mov    0xc(%rsp),%eax
  4017a3:	69 c0 30 8b 00 00    	imul   $0x8b30,%eax,%eax
  4017a9:	89 44 24 0c          	mov    %eax,0xc(%rsp)
  4017ad:	8b 44 24 08          	mov    0x8(%rsp),%eax
  4017b1:	69 c0 27 51 00 00    	imul   $0x5127,%eax,%eax
  4017b7:	89 44 24 08          	mov    %eax,0x8(%rsp)
  4017bb:	8b 44 24 1c          	mov    0x1c(%rsp),%eax
  4017bf:	69 c0 8f e0 00 00    	imul   $0xe08f,%eax,%eax
  4017c5:	89 44 24 1c          	mov    %eax,0x1c(%rsp)
  4017c9:	8b 44 24 04          	mov    0x4(%rsp),%eax
  4017cd:	69 c0 51 3a 00 00    	imul   $0x3a51,%eax,%eax
  4017d3:	89 44 24 04          	mov    %eax,0x4(%rsp)
  4017d7:	8b 44 24 10          	mov    0x10(%rsp),%eax
  4017db:	69 c0 20 8f 00 00    	imul   $0x8f20,%eax,%eax
  4017e1:	89 44 24 10          	mov    %eax,0x10(%rsp)
  4017e5:	8b 44 24 24          	mov    0x24(%rsp),%eax
  4017e9:	69 c0 b1 8b 00 00    	imul   $0x8bb1,%eax,%eax
  4017ef:	89 44 24 24          	mov    %eax,0x24(%rsp)
  4017f3:	8b 44 24 04          	mov    0x4(%rsp),%eax
  4017f7:	69 c0 b5 78 00 00    	imul   $0x78b5,%eax,%eax
  4017fd:	89 44 24 04          	mov    %eax,0x4(%rsp)
  401801:	8b 44 24 04          	mov    0x4(%rsp),%eax
  401805:	69 c0 ca bd 00 00    	imul   $0xbdca,%eax,%eax
  40180b:	89 44 24 04          	mov    %eax,0x4(%rsp)
  40180f:	8b 44 24 1c          	mov    0x1c(%rsp),%eax
  401813:	69 c0 13 4b 00 00    	imul   $0x4b13,%eax,%eax
  401819:	89 44 24 1c          	mov    %eax,0x1c(%rsp)
  40181d:	8b 44 24 18          	mov    0x18(%rsp),%eax
  401821:	69 c0 10 75 00 00    	imul   $0x7510,%eax,%eax
  401827:	89 44 24 18          	mov    %eax,0x18(%rsp)
  40182b:	8b 44 24 04          	mov    0x4(%rsp),%eax
  40182f:	69 c0 f4 b3 00 00    	imul   $0xb3f4,%eax,%eax
  401835:	89 44 24 04          	mov    %eax,0x4(%rsp)
  401839:	8b 44 24 20          	mov    0x20(%rsp),%eax
  40183d:	69 c0 08 12 00 00    	imul   $0x1208,%eax,%eax
  401843:	89 44 24 20          	mov    %eax,0x20(%rsp)
  401847:	8b 44 24 1c          	mov    0x1c(%rsp),%eax
  40184b:	69 c0 5e 34 00 00    	imul   $0x345e,%eax,%eax
  401851:	89 44 24 1c          	mov    %eax,0x1c(%rsp)
  401855:	8b 04 24             	mov    (%rsp),%eax
  401858:	69 c0 5d 57 00 00    	imul   $0x575d,%eax,%eax
  40185e:	89 04 24             	mov    %eax,(%rsp)
  401861:	8b 44 24 14          	mov    0x14(%rsp),%eax
  401865:	69 c0 6b 6f 00 00    	imul   $0x6f6b,%eax,%eax
  40186b:	89 44 24 14          	mov    %eax,0x14(%rsp)
  40186f:	8b 44 24 14          	mov    0x14(%rsp),%eax
  401873:	69 c0 77 3e 00 00    	imul   $0x3e77,%eax,%eax
  401879:	89 44 24 14          	mov    %eax,0x14(%rsp)
  40187d:	8b 04 24             	mov    (%rsp),%eax
  401880:	69 c0 58 45 00 00    	imul   $0x4558,%eax,%eax
  401886:	89 04 24             	mov    %eax,(%rsp)
  401889:	8b 44 24 14          	mov    0x14(%rsp),%eax
  40188d:	69 c0 99 40 00 00    	imul   $0x4099,%eax,%eax
  401893:	89 44 24 14          	mov    %eax,0x14(%rsp)
  401897:	8b 44 24 08          	mov    0x8(%rsp),%eax
  40189b:	69 c0 f3 6e 00 00    	imul   $0x6ef3,%eax,%eax
  4018a1:	89 44 24 08          	mov    %eax,0x8(%rsp)
  4018a5:	8b 44 24 1c          	mov    0x1c(%rsp),%eax
  4018a9:	69 c0 ce 5c 00 00    	imul   $0x5cce,%eax,%eax
  4018af:	89 44 24 1c          	mov    %eax,0x1c(%rsp)
  4018b3:	8b 44 24 14          	mov    0x14(%rsp),%eax
  4018b7:	69 c0 e4 0a 00 00    	imul   $0xae4,%eax,%eax
  4018bd:	89 44 24 14          	mov    %eax,0x14(%rsp)
  4018c1:	8b 44 24 10          	mov    0x10(%rsp),%eax
  4018c5:	69 c0 ff 14 00 00    	imul   $0x14ff,%eax,%eax
  4018cb:	89 44 24 10          	mov    %eax,0x10(%rsp)
  4018cf:	8b 44 24 04          	mov    0x4(%rsp),%eax
  4018d3:	69 c0 a8 48 00 00    	imul   $0x48a8,%eax,%eax
  4018d9:	89 44 24 04          	mov    %eax,0x4(%rsp)
  4018dd:	8b 44 24 0c          	mov    0xc(%rsp),%eax
  4018e1:	69 c0 4f 5b 00 00    	imul   $0x5b4f,%eax,%eax
  4018e7:	89 44 24 0c          	mov    %eax,0xc(%rsp)
  4018eb:	8b 44 24 20          	mov    0x20(%rsp),%eax
  4018ef:	69 c0 75 d6 00 00    	imul   $0xd675,%eax,%eax
  4018f5:	89 44 24 20          	mov    %eax,0x20(%rsp)
  4018f9:	8b 44 24 14          	mov    0x14(%rsp),%eax
  4018fd:	69 c0 85 e6 00 00    	imul   $0xe685,%eax,%eax
  401903:	89 44 24 14          	mov    %eax,0x14(%rsp)
  401907:	8b 44 24 1c          	mov    0x1c(%rsp),%eax
  40190b:	69 c0 67 7e 00 00    	imul   $0x7e67,%eax,%eax
  401911:	89 44 24 1c          	mov    %eax,0x1c(%rsp)
  401915:	8b 44 24 08          	mov    0x8(%rsp),%eax
  401919:	69 c0 9b d2 00 00    	imul   $0xd29b,%eax,%eax
  40191f:	89 44 24 08          	mov    %eax,0x8(%rsp)
  401923:	8b 44 24 24          	mov    0x24(%rsp),%eax
  401927:	69 c0 c0 be 00 00    	imul   $0xbec0,%eax,%eax
  40192d:	89 44 24 24          	mov    %eax,0x24(%rsp)
  401931:	8b 44 24 24          	mov    0x24(%rsp),%eax
  401935:	69 c0 d4 53 00 00    	imul   $0x53d4,%eax,%eax
  40193b:	89 44 24 24          	mov    %eax,0x24(%rsp)
  40193f:	8b 44 24 24          	mov    0x24(%rsp),%eax
  401943:	69 c0 9e b7 00 00    	imul   $0xb79e,%eax,%eax
  401949:	89 44 24 24          	mov    %eax,0x24(%rsp)
  40194d:	8b 44 24 18          	mov    0x18(%rsp),%eax
  401951:	69 c0 c6 28 00 00    	imul   $0x28c6,%eax,%eax
  401957:	89 44 24 18          	mov    %eax,0x18(%rsp)
  40195b:	8b 44 24 04          	mov    0x4(%rsp),%eax
  40195f:	69 c0 e9 21 00 00    	imul   $0x21e9,%eax,%eax
  401965:	89 44 24 04          	mov    %eax,0x4(%rsp)
  401969:	ba 00 00 00 00       	mov    $0x0,%edx
  40196e:	b8 00 00 00 00       	mov    $0x0,%eax
  401973:	eb 0a                	jmp    40197f <scramble+0x50d>
  401975:	89 d1                	mov    %edx,%ecx
  401977:	8b 0c 8c             	mov    (%rsp,%rcx,4),%ecx
  40197a:	01 c8                	add    %ecx,%eax
  40197c:	83 c2 01             	add    $0x1,%edx
  40197f:	83 fa 09             	cmp    $0x9,%edx
  401982:	76 f1                	jbe    401975 <scramble+0x503>
  401984:	48 8b 74 24 28       	mov    0x28(%rsp),%rsi
  401989:	64 48 33 34 25 28 00 	xor    %fs:0x28,%rsi
  401990:	00 00 
  401992:	75 05                	jne    401999 <scramble+0x527>
  401994:	48 83 c4 38          	add    $0x38,%rsp
  401998:	c3                   	retq   
  401999:	e8 f0 07 00 00       	callq  40218e <__stack_chk_fail>

000000000040199e <getbuf>:
  40199e:	48 83 ec 28          	sub    $0x28,%rsp
  4019a2:	48 89 e7             	mov    %rsp,%rdi
  4019a5:	e8 31 03 00 00       	callq  401cdb <Gets>
  4019aa:	b8 01 00 00 00       	mov    $0x1,%eax
  4019af:	48 83 c4 28          	add    $0x28,%rsp
  4019b3:	c3                   	retq   

00000000004019b4 <getbuf_withcanary>:
  4019b4:	55                   	push   %rbp
  4019b5:	48 89 e5             	mov    %rsp,%rbp
  4019b8:	48 81 ec 20 01 00 00 	sub    $0x120,%rsp
  4019bf:	64 48 8b 04 25 28 00 	mov    %fs:0x28,%rax
  4019c6:	00 00 
  4019c8:	48 89 45 f8          	mov    %rax,-0x8(%rbp)
  4019cc:	31 c0                	xor    %eax,%eax
  4019ce:	c7 45 e4 00 00 00 00 	movl   $0x0,-0x1c(%rbp)
  4019d5:	48 8d 85 60 ff ff ff 	lea    -0xa0(%rbp),%rax
  4019dc:	48 89 c7             	mov    %rax,%rdi
  4019df:	e8 f7 02 00 00       	callq  401cdb <Gets>
  4019e4:	8b 45 e4             	mov    -0x1c(%rbp),%eax
  4019e7:	48 98                	cltq   
  4019e9:	48 8d 95 e0 fe ff ff 	lea    -0x120(%rbp),%rdx
  4019f0:	48 8d 0c 02          	lea    (%rdx,%rax,1),%rcx
  4019f4:	48 8d 85 60 ff ff ff 	lea    -0xa0(%rbp),%rax
  4019fb:	ba 80 00 00 00       	mov    $0x80,%edx
  401a00:	48 89 c6             	mov    %rax,%rsi
  401a03:	48 89 cf             	mov    %rcx,%rdi
  401a06:	e8 f5 f3 ff ff       	callq  400e00 <memcpy@plt>
  401a0b:	b8 01 00 00 00       	mov    $0x1,%eax
  401a10:	48 8b 75 f8          	mov    -0x8(%rbp),%rsi
  401a14:	64 48 33 34 25 28 00 	xor    %fs:0x28,%rsi
  401a1b:	00 00 
  401a1d:	74 05                	je     401a24 <getbuf_withcanary+0x70>
  401a1f:	e8 6a 07 00 00       	callq  40218e <__stack_chk_fail>
  401a24:	c9                   	leaveq 
  401a25:	c3                   	retq   

0000000000401a26 <touch1>:
  401a26:	48 83 ec 08          	sub    $0x8,%rsp
  401a2a:	c7 05 e8 3a 20 00 01 	movl   $0x1,0x203ae8(%rip)        # 60551c <vlevel>
  401a31:	00 00 00 
  401a34:	48 8d 3d 67 1a 00 00 	lea    0x1a67(%rip),%rdi        # 4034a2 <_IO_stdin_used+0x312>
  401a3b:	e8 00 f3 ff ff       	callq  400d40 <puts@plt>
  401a40:	bf 01 00 00 00       	mov    $0x1,%edi
  401a45:	e8 f9 04 00 00       	callq  401f43 <validate>
  401a4a:	bf 00 00 00 00       	mov    $0x0,%edi
  401a4f:	e8 5c f4 ff ff       	callq  400eb0 <exit@plt>

0000000000401a54 <touch2>:
  401a54:	48 83 ec 08          	sub    $0x8,%rsp
  401a58:	89 fa                	mov    %edi,%edx
  401a5a:	c7 05 b8 3a 20 00 02 	movl   $0x2,0x203ab8(%rip)        # 60551c <vlevel>
  401a61:	00 00 00 
  401a64:	39 3d ba 3a 20 00    	cmp    %edi,0x203aba(%rip)        # 605524 <cookie>
  401a6a:	74 2a                	je     401a96 <touch2+0x42>
  401a6c:	48 8d 35 7d 1a 00 00 	lea    0x1a7d(%rip),%rsi        # 4034f0 <_IO_stdin_used+0x360>
  401a73:	bf 01 00 00 00       	mov    $0x1,%edi
  401a78:	b8 00 00 00 00       	mov    $0x0,%eax
  401a7d:	e8 de f3 ff ff       	callq  400e60 <__printf_chk@plt>
  401a82:	bf 02 00 00 00       	mov    $0x2,%edi
  401a87:	e8 87 05 00 00       	callq  402013 <fail>
  401a8c:	bf 00 00 00 00       	mov    $0x0,%edi
  401a91:	e8 1a f4 ff ff       	callq  400eb0 <exit@plt>
  401a96:	48 8d 35 2b 1a 00 00 	lea    0x1a2b(%rip),%rsi        # 4034c8 <_IO_stdin_used+0x338>
  401a9d:	bf 01 00 00 00       	mov    $0x1,%edi
  401aa2:	b8 00 00 00 00       	mov    $0x0,%eax
  401aa7:	e8 b4 f3 ff ff       	callq  400e60 <__printf_chk@plt>
  401aac:	bf 02 00 00 00       	mov    $0x2,%edi
  401ab1:	e8 8d 04 00 00       	callq  401f43 <validate>
  401ab6:	eb d4                	jmp    401a8c <touch2+0x38>

0000000000401ab8 <hexmatch>:
  401ab8:	41 54                	push   %r12
  401aba:	55                   	push   %rbp
  401abb:	53                   	push   %rbx
  401abc:	48 83 c4 80          	add    $0xffffffffffffff80,%rsp
  401ac0:	89 fd                	mov    %edi,%ebp
  401ac2:	48 89 f3             	mov    %rsi,%rbx
  401ac5:	64 48 8b 04 25 28 00 	mov    %fs:0x28,%rax
  401acc:	00 00 
  401ace:	48 89 44 24 78       	mov    %rax,0x78(%rsp)
  401ad3:	31 c0                	xor    %eax,%eax
  401ad5:	e8 46 f3 ff ff       	callq  400e20 <random@plt>
  401ada:	48 89 c1             	mov    %rax,%rcx
  401add:	48 ba 0b d7 a3 70 3d 	movabs $0xa3d70a3d70a3d70b,%rdx
  401ae4:	0a d7 a3 
  401ae7:	48 f7 ea             	imul   %rdx
  401aea:	48 01 ca             	add    %rcx,%rdx
  401aed:	48 c1 fa 06          	sar    $0x6,%rdx
  401af1:	48 89 c8             	mov    %rcx,%rax
  401af4:	48 c1 f8 3f          	sar    $0x3f,%rax
  401af8:	48 29 c2             	sub    %rax,%rdx
  401afb:	48 8d 04 92          	lea    (%rdx,%rdx,4),%rax
  401aff:	48 8d 14 80          	lea    (%rax,%rax,4),%rdx
  401b03:	48 8d 04 95 00 00 00 	lea    0x0(,%rdx,4),%rax
  401b0a:	00 
  401b0b:	48 29 c1             	sub    %rax,%rcx
  401b0e:	4c 8d 24 0c          	lea    (%rsp,%rcx,1),%r12
  401b12:	41 89 e8             	mov    %ebp,%r8d
  401b15:	48 8d 0d a3 19 00 00 	lea    0x19a3(%rip),%rcx        # 4034bf <_IO_stdin_used+0x32f>
  401b1c:	48 c7 c2 ff ff ff ff 	mov    $0xffffffffffffffff,%rdx
  401b23:	be 01 00 00 00       	mov    $0x1,%esi
  401b28:	4c 89 e7             	mov    %r12,%rdi
  401b2b:	b8 00 00 00 00       	mov    $0x0,%eax
  401b30:	e8 ab f3 ff ff       	callq  400ee0 <__sprintf_chk@plt>
  401b35:	ba 09 00 00 00       	mov    $0x9,%edx
  401b3a:	4c 89 e6             	mov    %r12,%rsi
  401b3d:	48 89 df             	mov    %rbx,%rdi
  401b40:	e8 db f1 ff ff       	callq  400d20 <strncmp@plt>
  401b45:	85 c0                	test   %eax,%eax
  401b47:	0f 94 c0             	sete   %al
  401b4a:	48 8b 5c 24 78       	mov    0x78(%rsp),%rbx
  401b4f:	64 48 33 1c 25 28 00 	xor    %fs:0x28,%rbx
  401b56:	00 00 
  401b58:	75 0c                	jne    401b66 <hexmatch+0xae>
  401b5a:	0f b6 c0             	movzbl %al,%eax
  401b5d:	48 83 ec 80          	sub    $0xffffffffffffff80,%rsp
  401b61:	5b                   	pop    %rbx
  401b62:	5d                   	pop    %rbp
  401b63:	41 5c                	pop    %r12
  401b65:	c3                   	retq   
  401b66:	e8 23 06 00 00       	callq  40218e <__stack_chk_fail>

0000000000401b6b <touch3>:
  401b6b:	53                   	push   %rbx
  401b6c:	48 89 fb             	mov    %rdi,%rbx
  401b6f:	c7 05 a3 39 20 00 03 	movl   $0x3,0x2039a3(%rip)        # 60551c <vlevel>
  401b76:	00 00 00 
  401b79:	48 89 fe             	mov    %rdi,%rsi
  401b7c:	8b 3d a2 39 20 00    	mov    0x2039a2(%rip),%edi        # 605524 <cookie>
  401b82:	e8 31 ff ff ff       	callq  401ab8 <hexmatch>
  401b87:	85 c0                	test   %eax,%eax
  401b89:	74 2d                	je     401bb8 <touch3+0x4d>
  401b8b:	48 89 da             	mov    %rbx,%rdx
  401b8e:	48 8d 35 83 19 00 00 	lea    0x1983(%rip),%rsi        # 403518 <_IO_stdin_used+0x388>
  401b95:	bf 01 00 00 00       	mov    $0x1,%edi
  401b9a:	b8 00 00 00 00       	mov    $0x0,%eax
  401b9f:	e8 bc f2 ff ff       	callq  400e60 <__printf_chk@plt>
  401ba4:	bf 03 00 00 00       	mov    $0x3,%edi
  401ba9:	e8 95 03 00 00       	callq  401f43 <validate>
  401bae:	bf 00 00 00 00       	mov    $0x0,%edi
  401bb3:	e8 f8 f2 ff ff       	callq  400eb0 <exit@plt>
  401bb8:	48 89 da             	mov    %rbx,%rdx
  401bbb:	48 8d 35 7e 19 00 00 	lea    0x197e(%rip),%rsi        # 403540 <_IO_stdin_used+0x3b0>
  401bc2:	bf 01 00 00 00       	mov    $0x1,%edi
  401bc7:	b8 00 00 00 00       	mov    $0x0,%eax
  401bcc:	e8 8f f2 ff ff       	callq  400e60 <__printf_chk@plt>
  401bd1:	bf 03 00 00 00       	mov    $0x3,%edi
  401bd6:	e8 38 04 00 00       	callq  402013 <fail>
  401bdb:	eb d1                	jmp    401bae <touch3+0x43>

0000000000401bdd <test>:
  401bdd:	48 83 ec 08          	sub    $0x8,%rsp
  401be1:	b8 00 00 00 00       	mov    $0x0,%eax
  401be6:	e8 b3 fd ff ff       	callq  40199e <getbuf>
  401beb:	89 c2                	mov    %eax,%edx
  401bed:	48 8d 35 74 19 00 00 	lea    0x1974(%rip),%rsi        # 403568 <_IO_stdin_used+0x3d8>
  401bf4:	bf 01 00 00 00       	mov    $0x1,%edi
  401bf9:	b8 00 00 00 00       	mov    $0x0,%eax
  401bfe:	e8 5d f2 ff ff       	callq  400e60 <__printf_chk@plt>
  401c03:	48 83 c4 08          	add    $0x8,%rsp
  401c07:	c3                   	retq   

0000000000401c08 <test2>:
  401c08:	48 83 ec 08          	sub    $0x8,%rsp
  401c0c:	b8 00 00 00 00       	mov    $0x0,%eax
  401c11:	e8 9e fd ff ff       	callq  4019b4 <getbuf_withcanary>
  401c16:	89 c2                	mov    %eax,%edx
  401c18:	48 8d 35 71 19 00 00 	lea    0x1971(%rip),%rsi        # 403590 <_IO_stdin_used+0x400>
  401c1f:	bf 01 00 00 00       	mov    $0x1,%edi
  401c24:	b8 00 00 00 00       	mov    $0x0,%eax
  401c29:	e8 32 f2 ff ff       	callq  400e60 <__printf_chk@plt>
  401c2e:	48 83 c4 08          	add    $0x8,%rsp
  401c32:	c3                   	retq   

0000000000401c33 <save_char>:
  401c33:	8b 05 0b 45 20 00    	mov    0x20450b(%rip),%eax        # 606144 <gets_cnt>
  401c39:	3d ff 03 00 00       	cmp    $0x3ff,%eax
  401c3e:	7f 4a                	jg     401c8a <save_char+0x57>
  401c40:	89 f9                	mov    %edi,%ecx
  401c42:	c0 e9 04             	shr    $0x4,%cl
  401c45:	8d 14 40             	lea    (%rax,%rax,2),%edx
  401c48:	4c 8d 05 a1 1c 00 00 	lea    0x1ca1(%rip),%r8        # 4038f0 <trans_char>
  401c4f:	83 e1 0f             	and    $0xf,%ecx
  401c52:	45 0f b6 0c 08       	movzbl (%r8,%rcx,1),%r9d
  401c57:	48 8d 0d e2 38 20 00 	lea    0x2038e2(%rip),%rcx        # 605540 <gets_buf>
  401c5e:	48 63 f2             	movslq %edx,%rsi
  401c61:	44 88 0c 31          	mov    %r9b,(%rcx,%rsi,1)
  401c65:	8d 72 01             	lea    0x1(%rdx),%esi
  401c68:	83 e7 0f             	and    $0xf,%edi
  401c6b:	41 0f b6 3c 38       	movzbl (%r8,%rdi,1),%edi
  401c70:	48 63 f6             	movslq %esi,%rsi
  401c73:	40 88 3c 31          	mov    %dil,(%rcx,%rsi,1)
  401c77:	83 c2 02             	add    $0x2,%edx
  401c7a:	48 63 d2             	movslq %edx,%rdx
  401c7d:	c6 04 11 20          	movb   $0x20,(%rcx,%rdx,1)
  401c81:	83 c0 01             	add    $0x1,%eax
  401c84:	89 05 ba 44 20 00    	mov    %eax,0x2044ba(%rip)        # 606144 <gets_cnt>
  401c8a:	f3 c3                	repz retq 

0000000000401c8c <save_term>:
  401c8c:	8b 05 b2 44 20 00    	mov    0x2044b2(%rip),%eax        # 606144 <gets_cnt>
  401c92:	8d 04 40             	lea    (%rax,%rax,2),%eax
  401c95:	48 98                	cltq   
  401c97:	48 8d 15 a2 38 20 00 	lea    0x2038a2(%rip),%rdx        # 605540 <gets_buf>
  401c9e:	c6 04 02 00          	movb   $0x0,(%rdx,%rax,1)
  401ca2:	c3                   	retq   

0000000000401ca3 <check_fail>:
  401ca3:	48 83 ec 08          	sub    $0x8,%rsp
  401ca7:	0f be 15 9a 44 20 00 	movsbl 0x20449a(%rip),%edx        # 606148 <target_prefix>
  401cae:	4c 8d 05 8b 38 20 00 	lea    0x20388b(%rip),%r8        # 605540 <gets_buf>
  401cb5:	8b 0d 5d 38 20 00    	mov    0x20385d(%rip),%ecx        # 605518 <check_level>
  401cbb:	48 8d 35 fc 18 00 00 	lea    0x18fc(%rip),%rsi        # 4035be <_IO_stdin_used+0x42e>
  401cc2:	bf 01 00 00 00       	mov    $0x1,%edi
  401cc7:	b8 00 00 00 00       	mov    $0x0,%eax
  401ccc:	e8 8f f1 ff ff       	callq  400e60 <__printf_chk@plt>
  401cd1:	bf 01 00 00 00       	mov    $0x1,%edi
  401cd6:	e8 d5 f1 ff ff       	callq  400eb0 <exit@plt>

0000000000401cdb <Gets>:
  401cdb:	41 54                	push   %r12
  401cdd:	55                   	push   %rbp
  401cde:	53                   	push   %rbx
  401cdf:	49 89 fc             	mov    %rdi,%r12
  401ce2:	c7 05 58 44 20 00 00 	movl   $0x0,0x204458(%rip)        # 606144 <gets_cnt>
  401ce9:	00 00 00 
  401cec:	48 89 fb             	mov    %rdi,%rbx
  401cef:	eb 11                	jmp    401d02 <Gets+0x27>
  401cf1:	48 8d 6b 01          	lea    0x1(%rbx),%rbp
  401cf5:	88 03                	mov    %al,(%rbx)
  401cf7:	0f b6 f8             	movzbl %al,%edi
  401cfa:	e8 34 ff ff ff       	callq  401c33 <save_char>
  401cff:	48 89 eb             	mov    %rbp,%rbx
  401d02:	48 8b 3d 07 38 20 00 	mov    0x203807(%rip),%rdi        # 605510 <infile>
  401d09:	e8 22 f1 ff ff       	callq  400e30 <_IO_getc@plt>
  401d0e:	83 f8 ff             	cmp    $0xffffffff,%eax
  401d11:	74 05                	je     401d18 <Gets+0x3d>
  401d13:	83 f8 0a             	cmp    $0xa,%eax
  401d16:	75 d9                	jne    401cf1 <Gets+0x16>
  401d18:	c6 03 00             	movb   $0x0,(%rbx)
  401d1b:	b8 00 00 00 00       	mov    $0x0,%eax
  401d20:	e8 67 ff ff ff       	callq  401c8c <save_term>
  401d25:	4c 89 e0             	mov    %r12,%rax
  401d28:	5b                   	pop    %rbx
  401d29:	5d                   	pop    %rbp
  401d2a:	41 5c                	pop    %r12
  401d2c:	c3                   	retq   

0000000000401d2d <notify_server>:
  401d2d:	55                   	push   %rbp
  401d2e:	53                   	push   %rbx
  401d2f:	48 81 ec 18 40 00 00 	sub    $0x4018,%rsp
  401d36:	64 48 8b 04 25 28 00 	mov    %fs:0x28,%rax
  401d3d:	00 00 
  401d3f:	48 89 84 24 08 40 00 	mov    %rax,0x4008(%rsp)
  401d46:	00 
  401d47:	31 c0                	xor    %eax,%eax
  401d49:	83 3d d8 37 20 00 00 	cmpl   $0x0,0x2037d8(%rip)        # 605528 <is_checker>
  401d50:	0f 85 cb 01 00 00    	jne    401f21 <notify_server+0x1f4>
  401d56:	89 fb                	mov    %edi,%ebx
  401d58:	8b 05 e6 43 20 00    	mov    0x2043e6(%rip),%eax        # 606144 <gets_cnt>
  401d5e:	83 c0 64             	add    $0x64,%eax
  401d61:	3d 00 20 00 00       	cmp    $0x2000,%eax
  401d66:	0f 8f bd 00 00 00    	jg     401e29 <notify_server+0xfc>
  401d6c:	0f be 05 d5 43 20 00 	movsbl 0x2043d5(%rip),%eax        # 606148 <target_prefix>
  401d73:	83 3d 2e 37 20 00 00 	cmpl   $0x0,0x20372e(%rip)        # 6054a8 <notify>
  401d7a:	0f 84 c9 00 00 00    	je     401e49 <notify_server+0x11c>
  401d80:	8b 15 9a 37 20 00    	mov    0x20379a(%rip),%edx        # 605520 <authkey>
  401d86:	85 db                	test   %ebx,%ebx
  401d88:	0f 84 c5 00 00 00    	je     401e53 <notify_server+0x126>
  401d8e:	48 8d 2d 3f 18 00 00 	lea    0x183f(%rip),%rbp        # 4035d4 <_IO_stdin_used+0x444>
  401d95:	48 89 e7             	mov    %rsp,%rdi
  401d98:	48 8d 0d a1 37 20 00 	lea    0x2037a1(%rip),%rcx        # 605540 <gets_buf>
  401d9f:	51                   	push   %rcx
  401da0:	56                   	push   %rsi
  401da1:	50                   	push   %rax
  401da2:	52                   	push   %rdx
  401da3:	49 89 e9             	mov    %rbp,%r9
  401da6:	44 8b 05 a3 33 20 00 	mov    0x2033a3(%rip),%r8d        # 605150 <target_id>
  401dad:	48 8d 0d 2a 18 00 00 	lea    0x182a(%rip),%rcx        # 4035de <_IO_stdin_used+0x44e>
  401db4:	ba 00 20 00 00       	mov    $0x2000,%edx
  401db9:	be 01 00 00 00       	mov    $0x1,%esi
  401dbe:	b8 00 00 00 00       	mov    $0x0,%eax
  401dc3:	e8 18 f1 ff ff       	callq  400ee0 <__sprintf_chk@plt>
  401dc8:	48 83 c4 20          	add    $0x20,%rsp
  401dcc:	83 3d d5 36 20 00 00 	cmpl   $0x0,0x2036d5(%rip)        # 6054a8 <notify>
  401dd3:	0f 84 bf 00 00 00    	je     401e98 <notify_server+0x16b>
  401dd9:	48 89 e1             	mov    %rsp,%rcx
  401ddc:	4c 8d 8c 24 00 20 00 	lea    0x2000(%rsp),%r9
  401de3:	00 
  401de4:	41 b8 00 00 00 00    	mov    $0x0,%r8d
  401dea:	48 8b 15 77 33 20 00 	mov    0x203377(%rip),%rdx        # 605168 <lab>
  401df1:	48 8b 35 78 33 20 00 	mov    0x203378(%rip),%rsi        # 605170 <course>
  401df8:	48 8b 3d 61 33 20 00 	mov    0x203361(%rip),%rdi        # 605160 <user_id>
  401dff:	e8 45 12 00 00       	callq  403049 <driver_post>
  401e04:	85 c0                	test   %eax,%eax
  401e06:	78 57                	js     401e5f <notify_server+0x132>
  401e08:	85 db                	test   %ebx,%ebx
  401e0a:	74 7b                	je     401e87 <notify_server+0x15a>
  401e0c:	48 8d 3d 1d 19 00 00 	lea    0x191d(%rip),%rdi        # 403730 <_IO_stdin_used+0x5a0>
  401e13:	e8 28 ef ff ff       	callq  400d40 <puts@plt>
  401e18:	48 8d 3d e7 17 00 00 	lea    0x17e7(%rip),%rdi        # 403606 <_IO_stdin_used+0x476>
  401e1f:	e8 1c ef ff ff       	callq  400d40 <puts@plt>
  401e24:	e9 f8 00 00 00       	jmpq   401f21 <notify_server+0x1f4>
  401e29:	48 8d 35 d0 18 00 00 	lea    0x18d0(%rip),%rsi        # 403700 <_IO_stdin_used+0x570>
  401e30:	bf 01 00 00 00       	mov    $0x1,%edi
  401e35:	b8 00 00 00 00       	mov    $0x0,%eax
  401e3a:	e8 21 f0 ff ff       	callq  400e60 <__printf_chk@plt>
  401e3f:	bf 01 00 00 00       	mov    $0x1,%edi
  401e44:	e8 67 f0 ff ff       	callq  400eb0 <exit@plt>
  401e49:	ba ff ff ff ff       	mov    $0xffffffff,%edx
  401e4e:	e9 33 ff ff ff       	jmpq   401d86 <notify_server+0x59>
  401e53:	48 8d 2d 7f 17 00 00 	lea    0x177f(%rip),%rbp        # 4035d9 <_IO_stdin_used+0x449>
  401e5a:	e9 36 ff ff ff       	jmpq   401d95 <notify_server+0x68>
  401e5f:	48 8d 94 24 00 20 00 	lea    0x2000(%rsp),%rdx
  401e66:	00 
  401e67:	48 8d 35 8c 17 00 00 	lea    0x178c(%rip),%rsi        # 4035fa <_IO_stdin_used+0x46a>
  401e6e:	bf 01 00 00 00       	mov    $0x1,%edi
  401e73:	b8 00 00 00 00       	mov    $0x0,%eax
  401e78:	e8 e3 ef ff ff       	callq  400e60 <__printf_chk@plt>
  401e7d:	bf 01 00 00 00       	mov    $0x1,%edi
  401e82:	e8 29 f0 ff ff       	callq  400eb0 <exit@plt>
  401e87:	48 8d 3d 82 17 00 00 	lea    0x1782(%rip),%rdi        # 403610 <_IO_stdin_used+0x480>
  401e8e:	e8 ad ee ff ff       	callq  400d40 <puts@plt>
  401e93:	e9 89 00 00 00       	jmpq   401f21 <notify_server+0x1f4>
  401e98:	48 89 ea             	mov    %rbp,%rdx
  401e9b:	48 8d 35 c6 18 00 00 	lea    0x18c6(%rip),%rsi        # 403768 <_IO_stdin_used+0x5d8>
  401ea2:	bf 01 00 00 00       	mov    $0x1,%edi
  401ea7:	b8 00 00 00 00       	mov    $0x0,%eax
  401eac:	e8 af ef ff ff       	callq  400e60 <__printf_chk@plt>
  401eb1:	48 8b 15 a8 32 20 00 	mov    0x2032a8(%rip),%rdx        # 605160 <user_id>
  401eb8:	48 8d 35 58 17 00 00 	lea    0x1758(%rip),%rsi        # 403617 <_IO_stdin_used+0x487>
  401ebf:	bf 01 00 00 00       	mov    $0x1,%edi
  401ec4:	b8 00 00 00 00       	mov    $0x0,%eax
  401ec9:	e8 92 ef ff ff       	callq  400e60 <__printf_chk@plt>
  401ece:	48 8b 15 9b 32 20 00 	mov    0x20329b(%rip),%rdx        # 605170 <course>
  401ed5:	48 8d 35 48 17 00 00 	lea    0x1748(%rip),%rsi        # 403624 <_IO_stdin_used+0x494>
  401edc:	bf 01 00 00 00       	mov    $0x1,%edi
  401ee1:	b8 00 00 00 00       	mov    $0x0,%eax
  401ee6:	e8 75 ef ff ff       	callq  400e60 <__printf_chk@plt>
  401eeb:	48 8b 15 76 32 20 00 	mov    0x203276(%rip),%rdx        # 605168 <lab>
  401ef2:	48 8d 35 37 17 00 00 	lea    0x1737(%rip),%rsi        # 403630 <_IO_stdin_used+0x4a0>
  401ef9:	bf 01 00 00 00       	mov    $0x1,%edi
  401efe:	b8 00 00 00 00       	mov    $0x0,%eax
  401f03:	e8 58 ef ff ff       	callq  400e60 <__printf_chk@plt>
  401f08:	48 89 e2             	mov    %rsp,%rdx
  401f0b:	48 8d 35 27 17 00 00 	lea    0x1727(%rip),%rsi        # 403639 <_IO_stdin_used+0x4a9>
  401f12:	bf 01 00 00 00       	mov    $0x1,%edi
  401f17:	b8 00 00 00 00       	mov    $0x0,%eax
  401f1c:	e8 3f ef ff ff       	callq  400e60 <__printf_chk@plt>
  401f21:	48 8b 84 24 08 40 00 	mov    0x4008(%rsp),%rax
  401f28:	00 
  401f29:	64 48 33 04 25 28 00 	xor    %fs:0x28,%rax
  401f30:	00 00 
  401f32:	75 0a                	jne    401f3e <notify_server+0x211>
  401f34:	48 81 c4 18 40 00 00 	add    $0x4018,%rsp
  401f3b:	5b                   	pop    %rbx
  401f3c:	5d                   	pop    %rbp
  401f3d:	c3                   	retq   
  401f3e:	e8 4b 02 00 00       	callq  40218e <__stack_chk_fail>

0000000000401f43 <validate>:
  401f43:	53                   	push   %rbx
  401f44:	89 fb                	mov    %edi,%ebx
  401f46:	83 3d db 35 20 00 00 	cmpl   $0x0,0x2035db(%rip)        # 605528 <is_checker>
  401f4d:	74 72                	je     401fc1 <validate+0x7e>
  401f4f:	39 3d c7 35 20 00    	cmp    %edi,0x2035c7(%rip)        # 60551c <vlevel>
  401f55:	75 32                	jne    401f89 <validate+0x46>
  401f57:	8b 15 bb 35 20 00    	mov    0x2035bb(%rip),%edx        # 605518 <check_level>
  401f5d:	39 fa                	cmp    %edi,%edx
  401f5f:	75 3e                	jne    401f9f <validate+0x5c>
  401f61:	0f be 15 e0 41 20 00 	movsbl 0x2041e0(%rip),%edx        # 606148 <target_prefix>
  401f68:	4c 8d 05 d1 35 20 00 	lea    0x2035d1(%rip),%r8        # 605540 <gets_buf>
  401f6f:	89 f9                	mov    %edi,%ecx
  401f71:	48 8d 35 eb 16 00 00 	lea    0x16eb(%rip),%rsi        # 403663 <_IO_stdin_used+0x4d3>
  401f78:	bf 01 00 00 00       	mov    $0x1,%edi
  401f7d:	b8 00 00 00 00       	mov    $0x0,%eax
  401f82:	e8 d9 ee ff ff       	callq  400e60 <__printf_chk@plt>
  401f87:	5b                   	pop    %rbx
  401f88:	c3                   	retq   
  401f89:	48 8d 3d b5 16 00 00 	lea    0x16b5(%rip),%rdi        # 403645 <_IO_stdin_used+0x4b5>
  401f90:	e8 ab ed ff ff       	callq  400d40 <puts@plt>
  401f95:	b8 00 00 00 00       	mov    $0x0,%eax
  401f9a:	e8 04 fd ff ff       	callq  401ca3 <check_fail>
  401f9f:	89 f9                	mov    %edi,%ecx
  401fa1:	48 8d 35 e8 17 00 00 	lea    0x17e8(%rip),%rsi        # 403790 <_IO_stdin_used+0x600>
  401fa8:	bf 01 00 00 00       	mov    $0x1,%edi
  401fad:	b8 00 00 00 00       	mov    $0x0,%eax
  401fb2:	e8 a9 ee ff ff       	callq  400e60 <__printf_chk@plt>
  401fb7:	b8 00 00 00 00       	mov    $0x0,%eax
  401fbc:	e8 e2 fc ff ff       	callq  401ca3 <check_fail>
  401fc1:	39 3d 55 35 20 00    	cmp    %edi,0x203555(%rip)        # 60551c <vlevel>
  401fc7:	74 1a                	je     401fe3 <validate+0xa0>
  401fc9:	48 8d 3d 75 16 00 00 	lea    0x1675(%rip),%rdi        # 403645 <_IO_stdin_used+0x4b5>
  401fd0:	e8 6b ed ff ff       	callq  400d40 <puts@plt>
  401fd5:	89 de                	mov    %ebx,%esi
  401fd7:	bf 00 00 00 00       	mov    $0x0,%edi
  401fdc:	e8 4c fd ff ff       	callq  401d2d <notify_server>
  401fe1:	eb a4                	jmp    401f87 <validate+0x44>
  401fe3:	0f be 0d 5e 41 20 00 	movsbl 0x20415e(%rip),%ecx        # 606148 <target_prefix>
  401fea:	89 fa                	mov    %edi,%edx
  401fec:	48 8d 35 c5 17 00 00 	lea    0x17c5(%rip),%rsi        # 4037b8 <_IO_stdin_used+0x628>
  401ff3:	bf 01 00 00 00       	mov    $0x1,%edi
  401ff8:	b8 00 00 00 00       	mov    $0x0,%eax
  401ffd:	e8 5e ee ff ff       	callq  400e60 <__printf_chk@plt>
  402002:	89 de                	mov    %ebx,%esi
  402004:	bf 01 00 00 00       	mov    $0x1,%edi
  402009:	e8 1f fd ff ff       	callq  401d2d <notify_server>
  40200e:	e9 74 ff ff ff       	jmpq   401f87 <validate+0x44>

0000000000402013 <fail>:
  402013:	48 83 ec 08          	sub    $0x8,%rsp
  402017:	83 3d 0a 35 20 00 00 	cmpl   $0x0,0x20350a(%rip)        # 605528 <is_checker>
  40201e:	75 11                	jne    402031 <fail+0x1e>
  402020:	89 fe                	mov    %edi,%esi
  402022:	bf 00 00 00 00       	mov    $0x0,%edi
  402027:	e8 01 fd ff ff       	callq  401d2d <notify_server>
  40202c:	48 83 c4 08          	add    $0x8,%rsp
  402030:	c3                   	retq   
  402031:	b8 00 00 00 00       	mov    $0x0,%eax
  402036:	e8 68 fc ff ff       	callq  401ca3 <check_fail>

000000000040203b <bushandler>:
  40203b:	48 83 ec 08          	sub    $0x8,%rsp
  40203f:	83 3d e2 34 20 00 00 	cmpl   $0x0,0x2034e2(%rip)        # 605528 <is_checker>
  402046:	74 16                	je     40205e <bushandler+0x23>
  402048:	48 8d 3d 29 16 00 00 	lea    0x1629(%rip),%rdi        # 403678 <_IO_stdin_used+0x4e8>
  40204f:	e8 ec ec ff ff       	callq  400d40 <puts@plt>
  402054:	b8 00 00 00 00       	mov    $0x0,%eax
  402059:	e8 45 fc ff ff       	callq  401ca3 <check_fail>
  40205e:	48 8d 3d 8b 17 00 00 	lea    0x178b(%rip),%rdi        # 4037f0 <_IO_stdin_used+0x660>
  402065:	e8 d6 ec ff ff       	callq  400d40 <puts@plt>
  40206a:	48 8d 3d 11 16 00 00 	lea    0x1611(%rip),%rdi        # 403682 <_IO_stdin_used+0x4f2>
  402071:	e8 ca ec ff ff       	callq  400d40 <puts@plt>
  402076:	be 00 00 00 00       	mov    $0x0,%esi
  40207b:	bf 00 00 00 00       	mov    $0x0,%edi
  402080:	e8 a8 fc ff ff       	callq  401d2d <notify_server>
  402085:	bf 01 00 00 00       	mov    $0x1,%edi
  40208a:	e8 21 ee ff ff       	callq  400eb0 <exit@plt>

000000000040208f <seghandler>:
  40208f:	48 83 ec 08          	sub    $0x8,%rsp
  402093:	83 3d 8e 34 20 00 00 	cmpl   $0x0,0x20348e(%rip)        # 605528 <is_checker>
  40209a:	74 16                	je     4020b2 <seghandler+0x23>
  40209c:	48 8d 3d f5 15 00 00 	lea    0x15f5(%rip),%rdi        # 403698 <_IO_stdin_used+0x508>
  4020a3:	e8 98 ec ff ff       	callq  400d40 <puts@plt>
  4020a8:	b8 00 00 00 00       	mov    $0x0,%eax
  4020ad:	e8 f1 fb ff ff       	callq  401ca3 <check_fail>
  4020b2:	48 8d 3d 57 17 00 00 	lea    0x1757(%rip),%rdi        # 403810 <_IO_stdin_used+0x680>
  4020b9:	e8 82 ec ff ff       	callq  400d40 <puts@plt>
  4020be:	48 8d 3d bd 15 00 00 	lea    0x15bd(%rip),%rdi        # 403682 <_IO_stdin_used+0x4f2>
  4020c5:	e8 76 ec ff ff       	callq  400d40 <puts@plt>
  4020ca:	be 00 00 00 00       	mov    $0x0,%esi
  4020cf:	bf 00 00 00 00       	mov    $0x0,%edi
  4020d4:	e8 54 fc ff ff       	callq  401d2d <notify_server>
  4020d9:	bf 01 00 00 00       	mov    $0x1,%edi
  4020de:	e8 cd ed ff ff       	callq  400eb0 <exit@plt>

00000000004020e3 <illegalhandler>:
  4020e3:	48 83 ec 08          	sub    $0x8,%rsp
  4020e7:	83 3d 3a 34 20 00 00 	cmpl   $0x0,0x20343a(%rip)        # 605528 <is_checker>
  4020ee:	74 16                	je     402106 <illegalhandler+0x23>
  4020f0:	48 8d 3d b4 15 00 00 	lea    0x15b4(%rip),%rdi        # 4036ab <_IO_stdin_used+0x51b>
  4020f7:	e8 44 ec ff ff       	callq  400d40 <puts@plt>
  4020fc:	b8 00 00 00 00       	mov    $0x0,%eax
  402101:	e8 9d fb ff ff       	callq  401ca3 <check_fail>
  402106:	48 8d 3d 2b 17 00 00 	lea    0x172b(%rip),%rdi        # 403838 <_IO_stdin_used+0x6a8>
  40210d:	e8 2e ec ff ff       	callq  400d40 <puts@plt>
  402112:	48 8d 3d 69 15 00 00 	lea    0x1569(%rip),%rdi        # 403682 <_IO_stdin_used+0x4f2>
  402119:	e8 22 ec ff ff       	callq  400d40 <puts@plt>
  40211e:	be 00 00 00 00       	mov    $0x0,%esi
  402123:	bf 00 00 00 00       	mov    $0x0,%edi
  402128:	e8 00 fc ff ff       	callq  401d2d <notify_server>
  40212d:	bf 01 00 00 00       	mov    $0x1,%edi
  402132:	e8 79 ed ff ff       	callq  400eb0 <exit@plt>

0000000000402137 <sigalrmhandler>:
  402137:	48 83 ec 08          	sub    $0x8,%rsp
  40213b:	83 3d e6 33 20 00 00 	cmpl   $0x0,0x2033e6(%rip)        # 605528 <is_checker>
  402142:	74 16                	je     40215a <sigalrmhandler+0x23>
  402144:	48 8d 3d 74 15 00 00 	lea    0x1574(%rip),%rdi        # 4036bf <_IO_stdin_used+0x52f>
  40214b:	e8 f0 eb ff ff       	callq  400d40 <puts@plt>
  402150:	b8 00 00 00 00       	mov    $0x0,%eax
  402155:	e8 49 fb ff ff       	callq  401ca3 <check_fail>
  40215a:	ba 02 00 00 00       	mov    $0x2,%edx
  40215f:	48 8d 35 02 17 00 00 	lea    0x1702(%rip),%rsi        # 403868 <_IO_stdin_used+0x6d8>
  402166:	bf 01 00 00 00       	mov    $0x1,%edi
  40216b:	b8 00 00 00 00       	mov    $0x0,%eax
  402170:	e8 eb ec ff ff       	callq  400e60 <__printf_chk@plt>
  402175:	be 00 00 00 00       	mov    $0x0,%esi
  40217a:	bf 00 00 00 00       	mov    $0x0,%edi
  40217f:	e8 a9 fb ff ff       	callq  401d2d <notify_server>
  402184:	bf 01 00 00 00       	mov    $0x1,%edi
  402189:	e8 22 ed ff ff       	callq  400eb0 <exit@plt>

000000000040218e <__stack_chk_fail>:
  40218e:	48 83 ec 08          	sub    $0x8,%rsp
  402192:	83 3d 8f 33 20 00 00 	cmpl   $0x0,0x20338f(%rip)        # 605528 <is_checker>
  402199:	74 16                	je     4021b1 <__stack_chk_fail+0x23>
  40219b:	48 8d 3d 25 15 00 00 	lea    0x1525(%rip),%rdi        # 4036c7 <_IO_stdin_used+0x537>
  4021a2:	e8 99 eb ff ff       	callq  400d40 <puts@plt>
  4021a7:	b8 00 00 00 00       	mov    $0x0,%eax
  4021ac:	e8 f2 fa ff ff       	callq  401ca3 <check_fail>
  4021b1:	48 8d 3d e8 16 00 00 	lea    0x16e8(%rip),%rdi        # 4038a0 <_IO_stdin_used+0x710>
  4021b8:	e8 83 eb ff ff       	callq  400d40 <puts@plt>
  4021bd:	48 8d 3d be 14 00 00 	lea    0x14be(%rip),%rdi        # 403682 <_IO_stdin_used+0x4f2>
  4021c4:	e8 77 eb ff ff       	callq  400d40 <puts@plt>
  4021c9:	be 00 00 00 00       	mov    $0x0,%esi
  4021ce:	bf 00 00 00 00       	mov    $0x0,%edi
  4021d3:	e8 55 fb ff ff       	callq  401d2d <notify_server>
  4021d8:	bf 01 00 00 00       	mov    $0x1,%edi
  4021dd:	e8 ce ec ff ff       	callq  400eb0 <exit@plt>

00000000004021e2 <launch>:
  4021e2:	55                   	push   %rbp
  4021e3:	48 89 e5             	mov    %rsp,%rbp
  4021e6:	53                   	push   %rbx
  4021e7:	48 83 ec 18          	sub    $0x18,%rsp
  4021eb:	48 89 fa             	mov    %rdi,%rdx
  4021ee:	89 f3                	mov    %esi,%ebx
  4021f0:	64 48 8b 04 25 28 00 	mov    %fs:0x28,%rax
  4021f7:	00 00 
  4021f9:	48 89 45 e8          	mov    %rax,-0x18(%rbp)
  4021fd:	31 c0                	xor    %eax,%eax
  4021ff:	48 8d 47 1e          	lea    0x1e(%rdi),%rax
  402203:	48 83 e0 f0          	and    $0xfffffffffffffff0,%rax
  402207:	48 29 c4             	sub    %rax,%rsp
  40220a:	48 8d 7c 24 0f       	lea    0xf(%rsp),%rdi
  40220f:	48 83 e7 f0          	and    $0xfffffffffffffff0,%rdi
  402213:	be f4 00 00 00       	mov    $0xf4,%esi
  402218:	e8 53 eb ff ff       	callq  400d70 <memset@plt>
  40221d:	48 8b 05 9c 32 20 00 	mov    0x20329c(%rip),%rax        # 6054c0 <stdin@@GLIBC_2.2.5>
  402224:	48 39 05 e5 32 20 00 	cmp    %rax,0x2032e5(%rip)        # 605510 <infile>
  40222b:	74 42                	je     40226f <launch+0x8d>
  40222d:	c7 05 e5 32 20 00 00 	movl   $0x0,0x2032e5(%rip)        # 60551c <vlevel>
  402234:	00 00 00 
  402237:	85 db                	test   %ebx,%ebx
  402239:	75 4c                	jne    402287 <launch+0xa5>
  40223b:	b8 00 00 00 00       	mov    $0x0,%eax
  402240:	e8 98 f9 ff ff       	callq  401bdd <test>
  402245:	83 3d dc 32 20 00 00 	cmpl   $0x0,0x2032dc(%rip)        # 605528 <is_checker>
  40224c:	75 45                	jne    402293 <launch+0xb1>
  40224e:	48 8d 3d 99 14 00 00 	lea    0x1499(%rip),%rdi        # 4036ee <_IO_stdin_used+0x55e>
  402255:	e8 e6 ea ff ff       	callq  400d40 <puts@plt>
  40225a:	48 8b 45 e8          	mov    -0x18(%rbp),%rax
  40225e:	64 48 33 04 25 28 00 	xor    %fs:0x28,%rax
  402265:	00 00 
  402267:	75 40                	jne    4022a9 <launch+0xc7>
  402269:	48 8b 5d f8          	mov    -0x8(%rbp),%rbx
  40226d:	c9                   	leaveq 
  40226e:	c3                   	retq   
  40226f:	48 8d 35 60 14 00 00 	lea    0x1460(%rip),%rsi        # 4036d6 <_IO_stdin_used+0x546>
  402276:	bf 01 00 00 00       	mov    $0x1,%edi
  40227b:	b8 00 00 00 00       	mov    $0x0,%eax
  402280:	e8 db eb ff ff       	callq  400e60 <__printf_chk@plt>
  402285:	eb a6                	jmp    40222d <launch+0x4b>
  402287:	b8 00 00 00 00       	mov    $0x0,%eax
  40228c:	e8 77 f9 ff ff       	callq  401c08 <test2>
  402291:	eb b2                	jmp    402245 <launch+0x63>
  402293:	48 8d 3d 49 14 00 00 	lea    0x1449(%rip),%rdi        # 4036e3 <_IO_stdin_used+0x553>
  40229a:	e8 a1 ea ff ff       	callq  400d40 <puts@plt>
  40229f:	b8 00 00 00 00       	mov    $0x0,%eax
  4022a4:	e8 fa f9 ff ff       	callq  401ca3 <check_fail>
  4022a9:	e8 e0 fe ff ff       	callq  40218e <__stack_chk_fail>

00000000004022ae <stable_launch>:
  4022ae:	55                   	push   %rbp
  4022af:	53                   	push   %rbx
  4022b0:	48 83 ec 08          	sub    $0x8,%rsp
  4022b4:	89 f5                	mov    %esi,%ebp
  4022b6:	48 89 3d 4b 32 20 00 	mov    %rdi,0x20324b(%rip)        # 605508 <global_offset>
  4022bd:	41 b9 00 00 00 00    	mov    $0x0,%r9d
  4022c3:	41 b8 00 00 00 00    	mov    $0x0,%r8d
  4022c9:	b9 32 01 00 00       	mov    $0x132,%ecx
  4022ce:	ba 07 00 00 00       	mov    $0x7,%edx
  4022d3:	be 00 00 10 00       	mov    $0x100000,%esi
  4022d8:	bf 00 60 58 55       	mov    $0x55586000,%edi
  4022dd:	e8 7e ea ff ff       	callq  400d60 <mmap@plt>
  4022e2:	48 89 c3             	mov    %rax,%rbx
  4022e5:	48 3d 00 60 58 55    	cmp    $0x55586000,%rax
  4022eb:	75 4a                	jne    402337 <stable_launch+0x89>
  4022ed:	48 8d 90 f8 ff 0f 00 	lea    0xffff8(%rax),%rdx
  4022f4:	48 89 15 55 3e 20 00 	mov    %rdx,0x203e55(%rip)        # 606150 <stack_top>
  4022fb:	48 89 e0             	mov    %rsp,%rax
  4022fe:	48 89 d4             	mov    %rdx,%rsp
  402301:	48 89 c2             	mov    %rax,%rdx
  402304:	48 89 15 f5 31 20 00 	mov    %rdx,0x2031f5(%rip)        # 605500 <global_save_stack>
  40230b:	89 ee                	mov    %ebp,%esi
  40230d:	48 8b 3d f4 31 20 00 	mov    0x2031f4(%rip),%rdi        # 605508 <global_offset>
  402314:	e8 c9 fe ff ff       	callq  4021e2 <launch>
  402319:	48 8b 05 e0 31 20 00 	mov    0x2031e0(%rip),%rax        # 605500 <global_save_stack>
  402320:	48 89 c4             	mov    %rax,%rsp
  402323:	be 00 00 10 00       	mov    $0x100000,%esi
  402328:	48 89 df             	mov    %rbx,%rdi
  40232b:	e8 20 eb ff ff       	callq  400e50 <munmap@plt>
  402330:	48 83 c4 08          	add    $0x8,%rsp
  402334:	5b                   	pop    %rbx
  402335:	5d                   	pop    %rbp
  402336:	c3                   	retq   
  402337:	be 00 00 10 00       	mov    $0x100000,%esi
  40233c:	48 89 c7             	mov    %rax,%rdi
  40233f:	e8 0c eb ff ff       	callq  400e50 <munmap@plt>
  402344:	b9 00 60 58 55       	mov    $0x55586000,%ecx
  402349:	48 8d 15 78 15 00 00 	lea    0x1578(%rip),%rdx        # 4038c8 <_IO_stdin_used+0x738>
  402350:	be 01 00 00 00       	mov    $0x1,%esi
  402355:	48 8b 3d 84 31 20 00 	mov    0x203184(%rip),%rdi        # 6054e0 <stderr@@GLIBC_2.2.5>
  40235c:	b8 00 00 00 00       	mov    $0x0,%eax
  402361:	e8 6a eb ff ff       	callq  400ed0 <__fprintf_chk@plt>
  402366:	bf 01 00 00 00       	mov    $0x1,%edi
  40236b:	e8 40 eb ff ff       	callq  400eb0 <exit@plt>

0000000000402370 <rio_readinitb>:
  402370:	89 37                	mov    %esi,(%rdi)
  402372:	c7 47 04 00 00 00 00 	movl   $0x0,0x4(%rdi)
  402379:	48 8d 47 10          	lea    0x10(%rdi),%rax
  40237d:	48 89 47 08          	mov    %rax,0x8(%rdi)
  402381:	c3                   	retq   

0000000000402382 <sigalrm_handler>:
  402382:	48 83 ec 08          	sub    $0x8,%rsp
  402386:	b9 00 00 00 00       	mov    $0x0,%ecx
  40238b:	48 8d 15 6e 15 00 00 	lea    0x156e(%rip),%rdx        # 403900 <trans_char+0x10>
  402392:	be 01 00 00 00       	mov    $0x1,%esi
  402397:	48 8b 3d 42 31 20 00 	mov    0x203142(%rip),%rdi        # 6054e0 <stderr@@GLIBC_2.2.5>
  40239e:	b8 00 00 00 00       	mov    $0x0,%eax
  4023a3:	e8 28 eb ff ff       	callq  400ed0 <__fprintf_chk@plt>
  4023a8:	bf 01 00 00 00       	mov    $0x1,%edi
  4023ad:	e8 fe ea ff ff       	callq  400eb0 <exit@plt>

00000000004023b2 <rio_writen>:
  4023b2:	41 55                	push   %r13
  4023b4:	41 54                	push   %r12
  4023b6:	55                   	push   %rbp
  4023b7:	53                   	push   %rbx
  4023b8:	48 83 ec 08          	sub    $0x8,%rsp
  4023bc:	41 89 fc             	mov    %edi,%r12d
  4023bf:	48 89 f5             	mov    %rsi,%rbp
  4023c2:	49 89 d5             	mov    %rdx,%r13
  4023c5:	48 89 d3             	mov    %rdx,%rbx
  4023c8:	eb 06                	jmp    4023d0 <rio_writen+0x1e>
  4023ca:	48 29 c3             	sub    %rax,%rbx
  4023cd:	48 01 c5             	add    %rax,%rbp
  4023d0:	48 85 db             	test   %rbx,%rbx
  4023d3:	74 24                	je     4023f9 <rio_writen+0x47>
  4023d5:	48 89 da             	mov    %rbx,%rdx
  4023d8:	48 89 ee             	mov    %rbp,%rsi
  4023db:	44 89 e7             	mov    %r12d,%edi
  4023de:	e8 6d e9 ff ff       	callq  400d50 <write@plt>
  4023e3:	48 85 c0             	test   %rax,%rax
  4023e6:	7f e2                	jg     4023ca <rio_writen+0x18>
  4023e8:	e8 03 e9 ff ff       	callq  400cf0 <__errno_location@plt>
  4023ed:	83 38 04             	cmpl   $0x4,(%rax)
  4023f0:	75 15                	jne    402407 <rio_writen+0x55>
  4023f2:	b8 00 00 00 00       	mov    $0x0,%eax
  4023f7:	eb d1                	jmp    4023ca <rio_writen+0x18>
  4023f9:	4c 89 e8             	mov    %r13,%rax
  4023fc:	48 83 c4 08          	add    $0x8,%rsp
  402400:	5b                   	pop    %rbx
  402401:	5d                   	pop    %rbp
  402402:	41 5c                	pop    %r12
  402404:	41 5d                	pop    %r13
  402406:	c3                   	retq   
  402407:	48 c7 c0 ff ff ff ff 	mov    $0xffffffffffffffff,%rax
  40240e:	eb ec                	jmp    4023fc <rio_writen+0x4a>

0000000000402410 <rio_read>:
  402410:	41 55                	push   %r13
  402412:	41 54                	push   %r12
  402414:	55                   	push   %rbp
  402415:	53                   	push   %rbx
  402416:	48 83 ec 08          	sub    $0x8,%rsp
  40241a:	48 89 fb             	mov    %rdi,%rbx
  40241d:	49 89 f5             	mov    %rsi,%r13
  402420:	49 89 d4             	mov    %rdx,%r12
  402423:	eb 0a                	jmp    40242f <rio_read+0x1f>
  402425:	e8 c6 e8 ff ff       	callq  400cf0 <__errno_location@plt>
  40242a:	83 38 04             	cmpl   $0x4,(%rax)
  40242d:	75 5c                	jne    40248b <rio_read+0x7b>
  40242f:	8b 6b 04             	mov    0x4(%rbx),%ebp
  402432:	85 ed                	test   %ebp,%ebp
  402434:	7f 24                	jg     40245a <rio_read+0x4a>
  402436:	48 8d 6b 10          	lea    0x10(%rbx),%rbp
  40243a:	8b 3b                	mov    (%rbx),%edi
  40243c:	ba 00 20 00 00       	mov    $0x2000,%edx
  402441:	48 89 ee             	mov    %rbp,%rsi
  402444:	e8 57 e9 ff ff       	callq  400da0 <read@plt>
  402449:	89 43 04             	mov    %eax,0x4(%rbx)
  40244c:	85 c0                	test   %eax,%eax
  40244e:	78 d5                	js     402425 <rio_read+0x15>
  402450:	85 c0                	test   %eax,%eax
  402452:	74 40                	je     402494 <rio_read+0x84>
  402454:	48 89 6b 08          	mov    %rbp,0x8(%rbx)
  402458:	eb d5                	jmp    40242f <rio_read+0x1f>
  40245a:	89 e8                	mov    %ebp,%eax
  40245c:	4c 39 e0             	cmp    %r12,%rax
  40245f:	72 03                	jb     402464 <rio_read+0x54>
  402461:	44 89 e5             	mov    %r12d,%ebp
  402464:	4c 63 e5             	movslq %ebp,%r12
  402467:	48 8b 73 08          	mov    0x8(%rbx),%rsi
  40246b:	4c 89 e2             	mov    %r12,%rdx
  40246e:	4c 89 ef             	mov    %r13,%rdi
  402471:	e8 8a e9 ff ff       	callq  400e00 <memcpy@plt>
  402476:	4c 01 63 08          	add    %r12,0x8(%rbx)
  40247a:	29 6b 04             	sub    %ebp,0x4(%rbx)
  40247d:	4c 89 e0             	mov    %r12,%rax
  402480:	48 83 c4 08          	add    $0x8,%rsp
  402484:	5b                   	pop    %rbx
  402485:	5d                   	pop    %rbp
  402486:	41 5c                	pop    %r12
  402488:	41 5d                	pop    %r13
  40248a:	c3                   	retq   
  40248b:	48 c7 c0 ff ff ff ff 	mov    $0xffffffffffffffff,%rax
  402492:	eb ec                	jmp    402480 <rio_read+0x70>
  402494:	b8 00 00 00 00       	mov    $0x0,%eax
  402499:	eb e5                	jmp    402480 <rio_read+0x70>

000000000040249b <rio_readlineb>:
  40249b:	41 55                	push   %r13
  40249d:	41 54                	push   %r12
  40249f:	55                   	push   %rbp
  4024a0:	53                   	push   %rbx
  4024a1:	48 83 ec 18          	sub    $0x18,%rsp
  4024a5:	49 89 fd             	mov    %rdi,%r13
  4024a8:	48 89 f5             	mov    %rsi,%rbp
  4024ab:	49 89 d4             	mov    %rdx,%r12
  4024ae:	64 48 8b 04 25 28 00 	mov    %fs:0x28,%rax
  4024b5:	00 00 
  4024b7:	48 89 44 24 08       	mov    %rax,0x8(%rsp)
  4024bc:	31 c0                	xor    %eax,%eax
  4024be:	bb 01 00 00 00       	mov    $0x1,%ebx
  4024c3:	4c 39 e3             	cmp    %r12,%rbx
  4024c6:	73 47                	jae    40250f <rio_readlineb+0x74>
  4024c8:	48 8d 74 24 07       	lea    0x7(%rsp),%rsi
  4024cd:	ba 01 00 00 00       	mov    $0x1,%edx
  4024d2:	4c 89 ef             	mov    %r13,%rdi
  4024d5:	e8 36 ff ff ff       	callq  402410 <rio_read>
  4024da:	83 f8 01             	cmp    $0x1,%eax
  4024dd:	75 1c                	jne    4024fb <rio_readlineb+0x60>
  4024df:	48 8d 45 01          	lea    0x1(%rbp),%rax
  4024e3:	0f b6 54 24 07       	movzbl 0x7(%rsp),%edx
  4024e8:	88 55 00             	mov    %dl,0x0(%rbp)
  4024eb:	80 7c 24 07 0a       	cmpb   $0xa,0x7(%rsp)
  4024f0:	74 1a                	je     40250c <rio_readlineb+0x71>
  4024f2:	48 83 c3 01          	add    $0x1,%rbx
  4024f6:	48 89 c5             	mov    %rax,%rbp
  4024f9:	eb c8                	jmp    4024c3 <rio_readlineb+0x28>
  4024fb:	85 c0                	test   %eax,%eax
  4024fd:	75 32                	jne    402531 <rio_readlineb+0x96>
  4024ff:	48 83 fb 01          	cmp    $0x1,%rbx
  402503:	75 0a                	jne    40250f <rio_readlineb+0x74>
  402505:	b8 00 00 00 00       	mov    $0x0,%eax
  40250a:	eb 0a                	jmp    402516 <rio_readlineb+0x7b>
  40250c:	48 89 c5             	mov    %rax,%rbp
  40250f:	c6 45 00 00          	movb   $0x0,0x0(%rbp)
  402513:	48 89 d8             	mov    %rbx,%rax
  402516:	48 8b 4c 24 08       	mov    0x8(%rsp),%rcx
  40251b:	64 48 33 0c 25 28 00 	xor    %fs:0x28,%rcx
  402522:	00 00 
  402524:	75 14                	jne    40253a <rio_readlineb+0x9f>
  402526:	48 83 c4 18          	add    $0x18,%rsp
  40252a:	5b                   	pop    %rbx
  40252b:	5d                   	pop    %rbp
  40252c:	41 5c                	pop    %r12
  40252e:	41 5d                	pop    %r13
  402530:	c3                   	retq   
  402531:	48 c7 c0 ff ff ff ff 	mov    $0xffffffffffffffff,%rax
  402538:	eb dc                	jmp    402516 <rio_readlineb+0x7b>
  40253a:	e8 4f fc ff ff       	callq  40218e <__stack_chk_fail>

000000000040253f <urlencode>:
  40253f:	41 54                	push   %r12
  402541:	55                   	push   %rbp
  402542:	53                   	push   %rbx
  402543:	48 83 ec 10          	sub    $0x10,%rsp
  402547:	48 89 fb             	mov    %rdi,%rbx
  40254a:	48 89 f5             	mov    %rsi,%rbp
  40254d:	64 48 8b 04 25 28 00 	mov    %fs:0x28,%rax
  402554:	00 00 
  402556:	48 89 44 24 08       	mov    %rax,0x8(%rsp)
  40255b:	31 c0                	xor    %eax,%eax
  40255d:	48 c7 c1 ff ff ff ff 	mov    $0xffffffffffffffff,%rcx
  402564:	f2 ae                	repnz scas %es:(%rdi),%al
  402566:	48 89 ce             	mov    %rcx,%rsi
  402569:	48 f7 d6             	not    %rsi
  40256c:	8d 46 ff             	lea    -0x1(%rsi),%eax
  40256f:	eb 0f                	jmp    402580 <urlencode+0x41>
  402571:	44 88 45 00          	mov    %r8b,0x0(%rbp)
  402575:	48 8d 6d 01          	lea    0x1(%rbp),%rbp
  402579:	48 83 c3 01          	add    $0x1,%rbx
  40257d:	44 89 e0             	mov    %r12d,%eax
  402580:	44 8d 60 ff          	lea    -0x1(%rax),%r12d
  402584:	85 c0                	test   %eax,%eax
  402586:	0f 84 a8 00 00 00    	je     402634 <urlencode+0xf5>
  40258c:	44 0f b6 03          	movzbl (%rbx),%r8d
  402590:	41 80 f8 2a          	cmp    $0x2a,%r8b
  402594:	0f 94 c2             	sete   %dl
  402597:	41 80 f8 2d          	cmp    $0x2d,%r8b
  40259b:	0f 94 c0             	sete   %al
  40259e:	08 c2                	or     %al,%dl
  4025a0:	75 cf                	jne    402571 <urlencode+0x32>
  4025a2:	41 80 f8 2e          	cmp    $0x2e,%r8b
  4025a6:	74 c9                	je     402571 <urlencode+0x32>
  4025a8:	41 80 f8 5f          	cmp    $0x5f,%r8b
  4025ac:	74 c3                	je     402571 <urlencode+0x32>
  4025ae:	41 8d 40 d0          	lea    -0x30(%r8),%eax
  4025b2:	3c 09                	cmp    $0x9,%al
  4025b4:	76 bb                	jbe    402571 <urlencode+0x32>
  4025b6:	41 8d 40 bf          	lea    -0x41(%r8),%eax
  4025ba:	3c 19                	cmp    $0x19,%al
  4025bc:	76 b3                	jbe    402571 <urlencode+0x32>
  4025be:	41 8d 40 9f          	lea    -0x61(%r8),%eax
  4025c2:	3c 19                	cmp    $0x19,%al
  4025c4:	76 ab                	jbe    402571 <urlencode+0x32>
  4025c6:	41 80 f8 20          	cmp    $0x20,%r8b
  4025ca:	74 56                	je     402622 <urlencode+0xe3>
  4025cc:	41 8d 40 e0          	lea    -0x20(%r8),%eax
  4025d0:	3c 5f                	cmp    $0x5f,%al
  4025d2:	0f 96 c2             	setbe  %dl
  4025d5:	41 80 f8 09          	cmp    $0x9,%r8b
  4025d9:	0f 94 c0             	sete   %al
  4025dc:	08 c2                	or     %al,%dl
  4025de:	74 4f                	je     40262f <urlencode+0xf0>
  4025e0:	48 89 e7             	mov    %rsp,%rdi
  4025e3:	45 0f b6 c0          	movzbl %r8b,%r8d
  4025e7:	48 8d 0d ca 13 00 00 	lea    0x13ca(%rip),%rcx        # 4039b8 <trans_char+0xc8>
  4025ee:	ba 08 00 00 00       	mov    $0x8,%edx
  4025f3:	be 01 00 00 00       	mov    $0x1,%esi
  4025f8:	b8 00 00 00 00       	mov    $0x0,%eax
  4025fd:	e8 de e8 ff ff       	callq  400ee0 <__sprintf_chk@plt>
  402602:	0f b6 04 24          	movzbl (%rsp),%eax
  402606:	88 45 00             	mov    %al,0x0(%rbp)
  402609:	0f b6 44 24 01       	movzbl 0x1(%rsp),%eax
  40260e:	88 45 01             	mov    %al,0x1(%rbp)
  402611:	0f b6 44 24 02       	movzbl 0x2(%rsp),%eax
  402616:	88 45 02             	mov    %al,0x2(%rbp)
  402619:	48 8d 6d 03          	lea    0x3(%rbp),%rbp
  40261d:	e9 57 ff ff ff       	jmpq   402579 <urlencode+0x3a>
  402622:	c6 45 00 2b          	movb   $0x2b,0x0(%rbp)
  402626:	48 8d 6d 01          	lea    0x1(%rbp),%rbp
  40262a:	e9 4a ff ff ff       	jmpq   402579 <urlencode+0x3a>
  40262f:	b8 ff ff ff ff       	mov    $0xffffffff,%eax
  402634:	48 8b 74 24 08       	mov    0x8(%rsp),%rsi
  402639:	64 48 33 34 25 28 00 	xor    %fs:0x28,%rsi
  402640:	00 00 
  402642:	75 09                	jne    40264d <urlencode+0x10e>
  402644:	48 83 c4 10          	add    $0x10,%rsp
  402648:	5b                   	pop    %rbx
  402649:	5d                   	pop    %rbp
  40264a:	41 5c                	pop    %r12
  40264c:	c3                   	retq   
  40264d:	e8 3c fb ff ff       	callq  40218e <__stack_chk_fail>

0000000000402652 <submitr>:
  402652:	41 57                	push   %r15
  402654:	41 56                	push   %r14
  402656:	41 55                	push   %r13
  402658:	41 54                	push   %r12
  40265a:	55                   	push   %rbp
  40265b:	53                   	push   %rbx
  40265c:	48 81 ec 68 a0 00 00 	sub    $0xa068,%rsp
  402663:	49 89 fd             	mov    %rdi,%r13
  402666:	89 74 24 1c          	mov    %esi,0x1c(%rsp)
  40266a:	48 89 54 24 08       	mov    %rdx,0x8(%rsp)
  40266f:	49 89 ce             	mov    %rcx,%r14
  402672:	4c 89 44 24 10       	mov    %r8,0x10(%rsp)
  402677:	4d 89 cf             	mov    %r9,%r15
  40267a:	48 8b ac 24 a0 a0 00 	mov    0xa0a0(%rsp),%rbp
  402681:	00 
  402682:	64 48 8b 04 25 28 00 	mov    %fs:0x28,%rax
  402689:	00 00 
  40268b:	48 89 84 24 58 a0 00 	mov    %rax,0xa058(%rsp)
  402692:	00 
  402693:	31 c0                	xor    %eax,%eax
  402695:	c7 44 24 2c 00 00 00 	movl   $0x0,0x2c(%rsp)
  40269c:	00 
  40269d:	ba 00 00 00 00       	mov    $0x0,%edx
  4026a2:	be 01 00 00 00       	mov    $0x1,%esi
  4026a7:	bf 02 00 00 00       	mov    $0x2,%edi
  4026ac:	e8 3f e8 ff ff       	callq  400ef0 <socket@plt>
  4026b1:	85 c0                	test   %eax,%eax
  4026b3:	0f 88 ae 02 00 00    	js     402967 <submitr+0x315>
  4026b9:	89 c3                	mov    %eax,%ebx
  4026bb:	4c 89 ef             	mov    %r13,%rdi
  4026be:	e8 0d e7 ff ff       	callq  400dd0 <gethostbyname@plt>
  4026c3:	48 85 c0             	test   %rax,%rax
  4026c6:	0f 84 e7 02 00 00    	je     4029b3 <submitr+0x361>
  4026cc:	4c 8d 64 24 30       	lea    0x30(%rsp),%r12
  4026d1:	48 c7 44 24 32 00 00 	movq   $0x0,0x32(%rsp)
  4026d8:	00 00 
  4026da:	c7 44 24 3a 00 00 00 	movl   $0x0,0x3a(%rsp)
  4026e1:	00 
  4026e2:	66 c7 44 24 3e 00 00 	movw   $0x0,0x3e(%rsp)
  4026e9:	66 c7 44 24 30 02 00 	movw   $0x2,0x30(%rsp)
  4026f0:	48 63 50 14          	movslq 0x14(%rax),%rdx
  4026f4:	48 8b 40 18          	mov    0x18(%rax),%rax
  4026f8:	48 8b 30             	mov    (%rax),%rsi
  4026fb:	48 8d 7c 24 34       	lea    0x34(%rsp),%rdi
  402700:	b9 0c 00 00 00       	mov    $0xc,%ecx
  402705:	e8 d6 e6 ff ff       	callq  400de0 <__memmove_chk@plt>
  40270a:	0f b7 44 24 1c       	movzwl 0x1c(%rsp),%eax
  40270f:	66 c1 c8 08          	ror    $0x8,%ax
  402713:	66 89 44 24 32       	mov    %ax,0x32(%rsp)
  402718:	ba 10 00 00 00       	mov    $0x10,%edx
  40271d:	4c 89 e6             	mov    %r12,%rsi
  402720:	89 df                	mov    %ebx,%edi
  402722:	e8 99 e7 ff ff       	callq  400ec0 <connect@plt>
  402727:	85 c0                	test   %eax,%eax
  402729:	0f 88 fa 02 00 00    	js     402a29 <submitr+0x3d7>
  40272f:	48 c7 c6 ff ff ff ff 	mov    $0xffffffffffffffff,%rsi
  402736:	b8 00 00 00 00       	mov    $0x0,%eax
  40273b:	48 89 f1             	mov    %rsi,%rcx
  40273e:	4c 89 ff             	mov    %r15,%rdi
  402741:	f2 ae                	repnz scas %es:(%rdi),%al
  402743:	48 89 ca             	mov    %rcx,%rdx
  402746:	48 f7 d2             	not    %rdx
  402749:	48 89 f1             	mov    %rsi,%rcx
  40274c:	48 8b 7c 24 08       	mov    0x8(%rsp),%rdi
  402751:	f2 ae                	repnz scas %es:(%rdi),%al
  402753:	48 f7 d1             	not    %rcx
  402756:	49 89 c8             	mov    %rcx,%r8
  402759:	48 89 f1             	mov    %rsi,%rcx
  40275c:	4c 89 f7             	mov    %r14,%rdi
  40275f:	f2 ae                	repnz scas %es:(%rdi),%al
  402761:	48 f7 d1             	not    %rcx
  402764:	4d 8d 44 08 fe       	lea    -0x2(%r8,%rcx,1),%r8
  402769:	48 89 f1             	mov    %rsi,%rcx
  40276c:	48 8b 7c 24 10       	mov    0x10(%rsp),%rdi
  402771:	f2 ae                	repnz scas %es:(%rdi),%al
  402773:	48 89 c8             	mov    %rcx,%rax
  402776:	48 f7 d0             	not    %rax
  402779:	49 8d 4c 00 ff       	lea    -0x1(%r8,%rax,1),%rcx
  40277e:	48 8d 44 52 fd       	lea    -0x3(%rdx,%rdx,2),%rax
  402783:	48 8d 84 01 80 00 00 	lea    0x80(%rcx,%rax,1),%rax
  40278a:	00 
  40278b:	48 3d 00 20 00 00    	cmp    $0x2000,%rax
  402791:	0f 87 fa 02 00 00    	ja     402a91 <submitr+0x43f>
  402797:	48 8d b4 24 50 40 00 	lea    0x4050(%rsp),%rsi
  40279e:	00 
  40279f:	b9 00 04 00 00       	mov    $0x400,%ecx
  4027a4:	b8 00 00 00 00       	mov    $0x0,%eax
  4027a9:	48 89 f7             	mov    %rsi,%rdi
  4027ac:	f3 48 ab             	rep stos %rax,%es:(%rdi)
  4027af:	4c 89 ff             	mov    %r15,%rdi
  4027b2:	e8 88 fd ff ff       	callq  40253f <urlencode>
  4027b7:	85 c0                	test   %eax,%eax
  4027b9:	0f 88 45 03 00 00    	js     402b04 <submitr+0x4b2>
  4027bf:	4c 8d a4 24 50 20 00 	lea    0x2050(%rsp),%r12
  4027c6:	00 
  4027c7:	48 83 ec 08          	sub    $0x8,%rsp
  4027cb:	41 55                	push   %r13
  4027cd:	48 8d 84 24 60 40 00 	lea    0x4060(%rsp),%rax
  4027d4:	00 
  4027d5:	50                   	push   %rax
  4027d6:	41 56                	push   %r14
  4027d8:	4c 8b 4c 24 30       	mov    0x30(%rsp),%r9
  4027dd:	4c 8b 44 24 28       	mov    0x28(%rsp),%r8
  4027e2:	48 8d 0d 3f 11 00 00 	lea    0x113f(%rip),%rcx        # 403928 <trans_char+0x38>
  4027e9:	ba 00 20 00 00       	mov    $0x2000,%edx
  4027ee:	be 01 00 00 00       	mov    $0x1,%esi
  4027f3:	4c 89 e7             	mov    %r12,%rdi
  4027f6:	b8 00 00 00 00       	mov    $0x0,%eax
  4027fb:	e8 e0 e6 ff ff       	callq  400ee0 <__sprintf_chk@plt>
  402800:	48 c7 c1 ff ff ff ff 	mov    $0xffffffffffffffff,%rcx
  402807:	b8 00 00 00 00       	mov    $0x0,%eax
  40280c:	4c 89 e7             	mov    %r12,%rdi
  40280f:	f2 ae                	repnz scas %es:(%rdi),%al
  402811:	48 89 ca             	mov    %rcx,%rdx
  402814:	48 f7 d2             	not    %rdx
  402817:	48 8d 52 ff          	lea    -0x1(%rdx),%rdx
  40281b:	48 83 c4 20          	add    $0x20,%rsp
  40281f:	4c 89 e6             	mov    %r12,%rsi
  402822:	89 df                	mov    %ebx,%edi
  402824:	e8 89 fb ff ff       	callq  4023b2 <rio_writen>
  402829:	48 85 c0             	test   %rax,%rax
  40282c:	0f 88 5d 03 00 00    	js     402b8f <submitr+0x53d>
  402832:	4c 8d 64 24 40       	lea    0x40(%rsp),%r12
  402837:	89 de                	mov    %ebx,%esi
  402839:	4c 89 e7             	mov    %r12,%rdi
  40283c:	e8 2f fb ff ff       	callq  402370 <rio_readinitb>
  402841:	48 8d b4 24 50 20 00 	lea    0x2050(%rsp),%rsi
  402848:	00 
  402849:	ba 00 20 00 00       	mov    $0x2000,%edx
  40284e:	4c 89 e7             	mov    %r12,%rdi
  402851:	e8 45 fc ff ff       	callq  40249b <rio_readlineb>
  402856:	48 85 c0             	test   %rax,%rax
  402859:	0f 8e 9c 03 00 00    	jle    402bfb <submitr+0x5a9>
  40285f:	48 8d 4c 24 2c       	lea    0x2c(%rsp),%rcx
  402864:	48 8d 94 24 50 60 00 	lea    0x6050(%rsp),%rdx
  40286b:	00 
  40286c:	48 8d bc 24 50 20 00 	lea    0x2050(%rsp),%rdi
  402873:	00 
  402874:	4c 8d 84 24 50 80 00 	lea    0x8050(%rsp),%r8
  40287b:	00 
  40287c:	48 8d 35 3c 11 00 00 	lea    0x113c(%rip),%rsi        # 4039bf <trans_char+0xcf>
  402883:	b8 00 00 00 00       	mov    $0x0,%eax
  402888:	e8 b3 e5 ff ff       	callq  400e40 <__isoc99_sscanf@plt>
  40288d:	48 8d b4 24 50 20 00 	lea    0x2050(%rsp),%rsi
  402894:	00 
  402895:	b9 03 00 00 00       	mov    $0x3,%ecx
  40289a:	48 8d 3d 35 11 00 00 	lea    0x1135(%rip),%rdi        # 4039d6 <trans_char+0xe6>
  4028a1:	f3 a6                	repz cmpsb %es:(%rdi),%ds:(%rsi)
  4028a3:	0f 97 c0             	seta   %al
  4028a6:	1c 00                	sbb    $0x0,%al
  4028a8:	84 c0                	test   %al,%al
  4028aa:	0f 84 cb 03 00 00    	je     402c7b <submitr+0x629>
  4028b0:	48 8d b4 24 50 20 00 	lea    0x2050(%rsp),%rsi
  4028b7:	00 
  4028b8:	48 8d 7c 24 40       	lea    0x40(%rsp),%rdi
  4028bd:	ba 00 20 00 00       	mov    $0x2000,%edx
  4028c2:	e8 d4 fb ff ff       	callq  40249b <rio_readlineb>
  4028c7:	48 85 c0             	test   %rax,%rax
  4028ca:	7f c1                	jg     40288d <submitr+0x23b>
  4028cc:	48 b8 45 72 72 6f 72 	movabs $0x43203a726f727245,%rax
  4028d3:	3a 20 43 
  4028d6:	48 ba 6c 69 65 6e 74 	movabs $0x6e7520746e65696c,%rdx
  4028dd:	20 75 6e 
  4028e0:	48 89 45 00          	mov    %rax,0x0(%rbp)
  4028e4:	48 89 55 08          	mov    %rdx,0x8(%rbp)
  4028e8:	48 b8 61 62 6c 65 20 	movabs $0x206f7420656c6261,%rax
  4028ef:	74 6f 20 
  4028f2:	48 ba 72 65 61 64 20 	movabs $0x6165682064616572,%rdx
  4028f9:	68 65 61 
  4028fc:	48 89 45 10          	mov    %rax,0x10(%rbp)
  402900:	48 89 55 18          	mov    %rdx,0x18(%rbp)
  402904:	48 b8 64 65 72 73 20 	movabs $0x6f72662073726564,%rax
  40290b:	66 72 6f 
  40290e:	48 ba 6d 20 41 75 74 	movabs $0x616c6f747541206d,%rdx
  402915:	6f 6c 61 
  402918:	48 89 45 20          	mov    %rax,0x20(%rbp)
  40291c:	48 89 55 28          	mov    %rdx,0x28(%rbp)
  402920:	48 b8 62 20 73 65 72 	movabs $0x7265767265732062,%rax
  402927:	76 65 72 
  40292a:	48 89 45 30          	mov    %rax,0x30(%rbp)
  40292e:	c6 45 38 00          	movb   $0x0,0x38(%rbp)
  402932:	89 df                	mov    %ebx,%edi
  402934:	e8 57 e4 ff ff       	callq  400d90 <close@plt>
  402939:	b8 ff ff ff ff       	mov    $0xffffffff,%eax
  40293e:	48 8b 9c 24 58 a0 00 	mov    0xa058(%rsp),%rbx
  402945:	00 
  402946:	64 48 33 1c 25 28 00 	xor    %fs:0x28,%rbx
  40294d:	00 00 
  40294f:	0f 85 96 04 00 00    	jne    402deb <submitr+0x799>
  402955:	48 81 c4 68 a0 00 00 	add    $0xa068,%rsp
  40295c:	5b                   	pop    %rbx
  40295d:	5d                   	pop    %rbp
  40295e:	41 5c                	pop    %r12
  402960:	41 5d                	pop    %r13
  402962:	41 5e                	pop    %r14
  402964:	41 5f                	pop    %r15
  402966:	c3                   	retq   
  402967:	48 b8 45 72 72 6f 72 	movabs $0x43203a726f727245,%rax
  40296e:	3a 20 43 
  402971:	48 ba 6c 69 65 6e 74 	movabs $0x6e7520746e65696c,%rdx
  402978:	20 75 6e 
  40297b:	48 89 45 00          	mov    %rax,0x0(%rbp)
  40297f:	48 89 55 08          	mov    %rdx,0x8(%rbp)
  402983:	48 b8 61 62 6c 65 20 	movabs $0x206f7420656c6261,%rax
  40298a:	74 6f 20 
  40298d:	48 ba 63 72 65 61 74 	movabs $0x7320657461657263,%rdx
  402994:	65 20 73 
  402997:	48 89 45 10          	mov    %rax,0x10(%rbp)
  40299b:	48 89 55 18          	mov    %rdx,0x18(%rbp)
  40299f:	c7 45 20 6f 63 6b 65 	movl   $0x656b636f,0x20(%rbp)
  4029a6:	66 c7 45 24 74 00    	movw   $0x74,0x24(%rbp)
  4029ac:	b8 ff ff ff ff       	mov    $0xffffffff,%eax
  4029b1:	eb 8b                	jmp    40293e <submitr+0x2ec>
  4029b3:	48 b8 45 72 72 6f 72 	movabs $0x44203a726f727245,%rax
  4029ba:	3a 20 44 
  4029bd:	48 ba 4e 53 20 69 73 	movabs $0x6e7520736920534e,%rdx
  4029c4:	20 75 6e 
  4029c7:	48 89 45 00          	mov    %rax,0x0(%rbp)
  4029cb:	48 89 55 08          	mov    %rdx,0x8(%rbp)
  4029cf:	48 b8 61 62 6c 65 20 	movabs $0x206f7420656c6261,%rax
  4029d6:	74 6f 20 
  4029d9:	48 ba 72 65 73 6f 6c 	movabs $0x2065766c6f736572,%rdx
  4029e0:	76 65 20 
  4029e3:	48 89 45 10          	mov    %rax,0x10(%rbp)
  4029e7:	48 89 55 18          	mov    %rdx,0x18(%rbp)
  4029eb:	48 b8 41 75 74 6f 6c 	movabs $0x2062616c6f747541,%rax
  4029f2:	61 62 20 
  4029f5:	48 ba 73 65 72 76 65 	movabs $0x6120726576726573,%rdx
  4029fc:	72 20 61 
  4029ff:	48 89 45 20          	mov    %rax,0x20(%rbp)
  402a03:	48 89 55 28          	mov    %rdx,0x28(%rbp)
  402a07:	c7 45 30 64 64 72 65 	movl   $0x65726464,0x30(%rbp)
  402a0e:	66 c7 45 34 73 73    	movw   $0x7373,0x34(%rbp)
  402a14:	c6 45 36 00          	movb   $0x0,0x36(%rbp)
  402a18:	89 df                	mov    %ebx,%edi
  402a1a:	e8 71 e3 ff ff       	callq  400d90 <close@plt>
  402a1f:	b8 ff ff ff ff       	mov    $0xffffffff,%eax
  402a24:	e9 15 ff ff ff       	jmpq   40293e <submitr+0x2ec>
  402a29:	48 b8 45 72 72 6f 72 	movabs $0x55203a726f727245,%rax
  402a30:	3a 20 55 
  402a33:	48 ba 6e 61 62 6c 65 	movabs $0x6f7420656c62616e,%rdx
  402a3a:	20 74 6f 
  402a3d:	48 89 45 00          	mov    %rax,0x0(%rbp)
  402a41:	48 89 55 08          	mov    %rdx,0x8(%rbp)
  402a45:	48 b8 20 63 6f 6e 6e 	movabs $0x7463656e6e6f6320,%rax
  402a4c:	65 63 74 
  402a4f:	48 ba 20 74 6f 20 74 	movabs $0x20656874206f7420,%rdx
  402a56:	68 65 20 
  402a59:	48 89 45 10          	mov    %rax,0x10(%rbp)
  402a5d:	48 89 55 18          	mov    %rdx,0x18(%rbp)
  402a61:	48 b8 41 75 74 6f 6c 	movabs $0x2062616c6f747541,%rax
  402a68:	61 62 20 
  402a6b:	48 89 45 20          	mov    %rax,0x20(%rbp)
  402a6f:	c7 45 28 73 65 72 76 	movl   $0x76726573,0x28(%rbp)
  402a76:	66 c7 45 2c 65 72    	movw   $0x7265,0x2c(%rbp)
  402a7c:	c6 45 2e 00          	movb   $0x0,0x2e(%rbp)
  402a80:	89 df                	mov    %ebx,%edi
  402a82:	e8 09 e3 ff ff       	callq  400d90 <close@plt>
  402a87:	b8 ff ff ff ff       	mov    $0xffffffff,%eax
  402a8c:	e9 ad fe ff ff       	jmpq   40293e <submitr+0x2ec>
  402a91:	48 b8 45 72 72 6f 72 	movabs $0x52203a726f727245,%rax
  402a98:	3a 20 52 
  402a9b:	48 ba 65 73 75 6c 74 	movabs $0x747320746c757365,%rdx
  402aa2:	20 73 74 
  402aa5:	48 89 45 00          	mov    %rax,0x0(%rbp)
  402aa9:	48 89 55 08          	mov    %rdx,0x8(%rbp)
  402aad:	48 b8 72 69 6e 67 20 	movabs $0x6f6f7420676e6972,%rax
  402ab4:	74 6f 6f 
  402ab7:	48 ba 20 6c 61 72 67 	movabs $0x202e656772616c20,%rdx
  402abe:	65 2e 20 
  402ac1:	48 89 45 10          	mov    %rax,0x10(%rbp)
  402ac5:	48 89 55 18          	mov    %rdx,0x18(%rbp)
  402ac9:	48 b8 49 6e 63 72 65 	movabs $0x6573616572636e49,%rax
  402ad0:	61 73 65 
  402ad3:	48 ba 20 53 55 42 4d 	movabs $0x5254494d42555320,%rdx
  402ada:	49 54 52 
  402add:	48 89 45 20          	mov    %rax,0x20(%rbp)
  402ae1:	48 89 55 28          	mov    %rdx,0x28(%rbp)
  402ae5:	48 b8 5f 4d 41 58 42 	movabs $0x46554258414d5f,%rax
  402aec:	55 46 00 
  402aef:	48 89 45 30          	mov    %rax,0x30(%rbp)
  402af3:	89 df                	mov    %ebx,%edi
  402af5:	e8 96 e2 ff ff       	callq  400d90 <close@plt>
  402afa:	b8 ff ff ff ff       	mov    $0xffffffff,%eax
  402aff:	e9 3a fe ff ff       	jmpq   40293e <submitr+0x2ec>
  402b04:	48 b8 45 72 72 6f 72 	movabs $0x52203a726f727245,%rax
  402b0b:	3a 20 52 
  402b0e:	48 ba 65 73 75 6c 74 	movabs $0x747320746c757365,%rdx
  402b15:	20 73 74 
  402b18:	48 89 45 00          	mov    %rax,0x0(%rbp)
  402b1c:	48 89 55 08          	mov    %rdx,0x8(%rbp)
  402b20:	48 b8 72 69 6e 67 20 	movabs $0x6e6f6320676e6972,%rax
  402b27:	63 6f 6e 
  402b2a:	48 ba 74 61 69 6e 73 	movabs $0x6e6120736e696174,%rdx
  402b31:	20 61 6e 
  402b34:	48 89 45 10          	mov    %rax,0x10(%rbp)
  402b38:	48 89 55 18          	mov    %rdx,0x18(%rbp)
  402b3c:	48 b8 20 69 6c 6c 65 	movabs $0x6c6167656c6c6920,%rax
  402b43:	67 61 6c 
  402b46:	48 ba 20 6f 72 20 75 	movabs $0x72706e7520726f20,%rdx
  402b4d:	6e 70 72 
  402b50:	48 89 45 20          	mov    %rax,0x20(%rbp)
  402b54:	48 89 55 28          	mov    %rdx,0x28(%rbp)
  402b58:	48 b8 69 6e 74 61 62 	movabs $0x20656c6261746e69,%rax
  402b5f:	6c 65 20 
  402b62:	48 ba 63 68 61 72 61 	movabs $0x6574636172616863,%rdx
  402b69:	63 74 65 
  402b6c:	48 89 45 30          	mov    %rax,0x30(%rbp)
  402b70:	48 89 55 38          	mov    %rdx,0x38(%rbp)
  402b74:	66 c7 45 40 72 2e    	movw   $0x2e72,0x40(%rbp)
  402b7a:	c6 45 42 00          	movb   $0x0,0x42(%rbp)
  402b7e:	89 df                	mov    %ebx,%edi
  402b80:	e8 0b e2 ff ff       	callq  400d90 <close@plt>
  402b85:	b8 ff ff ff ff       	mov    $0xffffffff,%eax
  402b8a:	e9 af fd ff ff       	jmpq   40293e <submitr+0x2ec>
  402b8f:	48 b8 45 72 72 6f 72 	movabs $0x43203a726f727245,%rax
  402b96:	3a 20 43 
  402b99:	48 ba 6c 69 65 6e 74 	movabs $0x6e7520746e65696c,%rdx
  402ba0:	20 75 6e 
  402ba3:	48 89 45 00          	mov    %rax,0x0(%rbp)
  402ba7:	48 89 55 08          	mov    %rdx,0x8(%rbp)
  402bab:	48 b8 61 62 6c 65 20 	movabs $0x206f7420656c6261,%rax
  402bb2:	74 6f 20 
  402bb5:	48 ba 77 72 69 74 65 	movabs $0x6f74206574697277,%rdx
  402bbc:	20 74 6f 
  402bbf:	48 89 45 10          	mov    %rax,0x10(%rbp)
  402bc3:	48 89 55 18          	mov    %rdx,0x18(%rbp)
  402bc7:	48 b8 20 74 68 65 20 	movabs $0x7475412065687420,%rax
  402bce:	41 75 74 
  402bd1:	48 ba 6f 6c 61 62 20 	movabs $0x7265732062616c6f,%rdx
  402bd8:	73 65 72 
  402bdb:	48 89 45 20          	mov    %rax,0x20(%rbp)
  402bdf:	48 89 55 28          	mov    %rdx,0x28(%rbp)
  402be3:	c7 45 30 76 65 72 00 	movl   $0x726576,0x30(%rbp)
  402bea:	89 df                	mov    %ebx,%edi
  402bec:	e8 9f e1 ff ff       	callq  400d90 <close@plt>
  402bf1:	b8 ff ff ff ff       	mov    $0xffffffff,%eax
  402bf6:	e9 43 fd ff ff       	jmpq   40293e <submitr+0x2ec>
  402bfb:	48 b8 45 72 72 6f 72 	movabs $0x43203a726f727245,%rax
  402c02:	3a 20 43 
  402c05:	48 ba 6c 69 65 6e 74 	movabs $0x6e7520746e65696c,%rdx
  402c0c:	20 75 6e 
  402c0f:	48 89 45 00          	mov    %rax,0x0(%rbp)
  402c13:	48 89 55 08          	mov    %rdx,0x8(%rbp)
  402c17:	48 b8 61 62 6c 65 20 	movabs $0x206f7420656c6261,%rax
  402c1e:	74 6f 20 
  402c21:	48 ba 72 65 61 64 20 	movabs $0x7269662064616572,%rdx
  402c28:	66 69 72 
  402c2b:	48 89 45 10          	mov    %rax,0x10(%rbp)
  402c2f:	48 89 55 18          	mov    %rdx,0x18(%rbp)
  402c33:	48 b8 73 74 20 68 65 	movabs $0x6564616568207473,%rax
  402c3a:	61 64 65 
  402c3d:	48 ba 72 20 66 72 6f 	movabs $0x41206d6f72662072,%rdx
  402c44:	6d 20 41 
  402c47:	48 89 45 20          	mov    %rax,0x20(%rbp)
  402c4b:	48 89 55 28          	mov    %rdx,0x28(%rbp)
  402c4f:	48 b8 75 74 6f 6c 61 	movabs $0x732062616c6f7475,%rax
  402c56:	62 20 73 
  402c59:	48 89 45 30          	mov    %rax,0x30(%rbp)
  402c5d:	c7 45 38 65 72 76 65 	movl   $0x65767265,0x38(%rbp)
  402c64:	66 c7 45 3c 72 00    	movw   $0x72,0x3c(%rbp)
  402c6a:	89 df                	mov    %ebx,%edi
  402c6c:	e8 1f e1 ff ff       	callq  400d90 <close@plt>
  402c71:	b8 ff ff ff ff       	mov    $0xffffffff,%eax
  402c76:	e9 c3 fc ff ff       	jmpq   40293e <submitr+0x2ec>
  402c7b:	48 8d b4 24 50 20 00 	lea    0x2050(%rsp),%rsi
  402c82:	00 
  402c83:	48 8d 7c 24 40       	lea    0x40(%rsp),%rdi
  402c88:	ba 00 20 00 00       	mov    $0x2000,%edx
  402c8d:	e8 09 f8 ff ff       	callq  40249b <rio_readlineb>
  402c92:	48 85 c0             	test   %rax,%rax
  402c95:	0f 8e 96 00 00 00    	jle    402d31 <submitr+0x6df>
  402c9b:	44 8b 44 24 2c       	mov    0x2c(%rsp),%r8d
  402ca0:	41 81 f8 c8 00 00 00 	cmp    $0xc8,%r8d
  402ca7:	0f 85 05 01 00 00    	jne    402db2 <submitr+0x760>
  402cad:	48 8d b4 24 50 20 00 	lea    0x2050(%rsp),%rsi
  402cb4:	00 
  402cb5:	48 89 ef             	mov    %rbp,%rdi
  402cb8:	e8 73 e0 ff ff       	callq  400d30 <strcpy@plt>
  402cbd:	89 df                	mov    %ebx,%edi
  402cbf:	e8 cc e0 ff ff       	callq  400d90 <close@plt>
  402cc4:	b9 04 00 00 00       	mov    $0x4,%ecx
  402cc9:	48 8d 3d 00 0d 00 00 	lea    0xd00(%rip),%rdi        # 4039d0 <trans_char+0xe0>
  402cd0:	48 89 ee             	mov    %rbp,%rsi
  402cd3:	f3 a6                	repz cmpsb %es:(%rdi),%ds:(%rsi)
  402cd5:	0f 97 c0             	seta   %al
  402cd8:	1c 00                	sbb    $0x0,%al
  402cda:	0f be c0             	movsbl %al,%eax
  402cdd:	85 c0                	test   %eax,%eax
  402cdf:	0f 84 59 fc ff ff    	je     40293e <submitr+0x2ec>
  402ce5:	b9 05 00 00 00       	mov    $0x5,%ecx
  402cea:	48 8d 3d e3 0c 00 00 	lea    0xce3(%rip),%rdi        # 4039d4 <trans_char+0xe4>
  402cf1:	48 89 ee             	mov    %rbp,%rsi
  402cf4:	f3 a6                	repz cmpsb %es:(%rdi),%ds:(%rsi)
  402cf6:	0f 97 c0             	seta   %al
  402cf9:	1c 00                	sbb    $0x0,%al
  402cfb:	0f be c0             	movsbl %al,%eax
  402cfe:	85 c0                	test   %eax,%eax
  402d00:	0f 84 38 fc ff ff    	je     40293e <submitr+0x2ec>
  402d06:	b9 03 00 00 00       	mov    $0x3,%ecx
  402d0b:	48 8d 3d c7 0c 00 00 	lea    0xcc7(%rip),%rdi        # 4039d9 <trans_char+0xe9>
  402d12:	48 89 ee             	mov    %rbp,%rsi
  402d15:	f3 a6                	repz cmpsb %es:(%rdi),%ds:(%rsi)
  402d17:	0f 97 c0             	seta   %al
  402d1a:	1c 00                	sbb    $0x0,%al
  402d1c:	0f be c0             	movsbl %al,%eax
  402d1f:	85 c0                	test   %eax,%eax
  402d21:	0f 84 17 fc ff ff    	je     40293e <submitr+0x2ec>
  402d27:	b8 ff ff ff ff       	mov    $0xffffffff,%eax
  402d2c:	e9 0d fc ff ff       	jmpq   40293e <submitr+0x2ec>
  402d31:	48 b8 45 72 72 6f 72 	movabs $0x43203a726f727245,%rax
  402d38:	3a 20 43 
  402d3b:	48 ba 6c 69 65 6e 74 	movabs $0x6e7520746e65696c,%rdx
  402d42:	20 75 6e 
  402d45:	48 89 45 00          	mov    %rax,0x0(%rbp)
  402d49:	48 89 55 08          	mov    %rdx,0x8(%rbp)
  402d4d:	48 b8 61 62 6c 65 20 	movabs $0x206f7420656c6261,%rax
  402d54:	74 6f 20 
  402d57:	48 ba 72 65 61 64 20 	movabs $0x6174732064616572,%rdx
  402d5e:	73 74 61 
  402d61:	48 89 45 10          	mov    %rax,0x10(%rbp)
  402d65:	48 89 55 18          	mov    %rdx,0x18(%rbp)
  402d69:	48 b8 74 75 73 20 6d 	movabs $0x7373656d20737574,%rax
  402d70:	65 73 73 
  402d73:	48 ba 61 67 65 20 66 	movabs $0x6d6f726620656761,%rdx
  402d7a:	72 6f 6d 
  402d7d:	48 89 45 20          	mov    %rax,0x20(%rbp)
  402d81:	48 89 55 28          	mov    %rdx,0x28(%rbp)
  402d85:	48 b8 20 41 75 74 6f 	movabs $0x62616c6f74754120,%rax
  402d8c:	6c 61 62 
  402d8f:	48 ba 20 73 65 72 76 	movabs $0x72657672657320,%rdx
  402d96:	65 72 00 
  402d99:	48 89 45 30          	mov    %rax,0x30(%rbp)
  402d9d:	48 89 55 38          	mov    %rdx,0x38(%rbp)
  402da1:	89 df                	mov    %ebx,%edi
  402da3:	e8 e8 df ff ff       	callq  400d90 <close@plt>
  402da8:	b8 ff ff ff ff       	mov    $0xffffffff,%eax
  402dad:	e9 8c fb ff ff       	jmpq   40293e <submitr+0x2ec>
  402db2:	4c 8d 8c 24 50 80 00 	lea    0x8050(%rsp),%r9
  402db9:	00 
  402dba:	48 8d 0d c7 0b 00 00 	lea    0xbc7(%rip),%rcx        # 403988 <trans_char+0x98>
  402dc1:	48 c7 c2 ff ff ff ff 	mov    $0xffffffffffffffff,%rdx
  402dc8:	be 01 00 00 00       	mov    $0x1,%esi
  402dcd:	48 89 ef             	mov    %rbp,%rdi
  402dd0:	b8 00 00 00 00       	mov    $0x0,%eax
  402dd5:	e8 06 e1 ff ff       	callq  400ee0 <__sprintf_chk@plt>
  402dda:	89 df                	mov    %ebx,%edi
  402ddc:	e8 af df ff ff       	callq  400d90 <close@plt>
  402de1:	b8 ff ff ff ff       	mov    $0xffffffff,%eax
  402de6:	e9 53 fb ff ff       	jmpq   40293e <submitr+0x2ec>
  402deb:	e8 9e f3 ff ff       	callq  40218e <__stack_chk_fail>

0000000000402df0 <init_timeout>:
  402df0:	85 ff                	test   %edi,%edi
  402df2:	74 28                	je     402e1c <init_timeout+0x2c>
  402df4:	53                   	push   %rbx
  402df5:	89 fb                	mov    %edi,%ebx
  402df7:	85 ff                	test   %edi,%edi
  402df9:	78 1a                	js     402e15 <init_timeout+0x25>
  402dfb:	48 8d 35 80 f5 ff ff 	lea    -0xa80(%rip),%rsi        # 402382 <sigalrm_handler>
  402e02:	bf 0e 00 00 00       	mov    $0xe,%edi
  402e07:	e8 b4 df ff ff       	callq  400dc0 <signal@plt>
  402e0c:	89 df                	mov    %ebx,%edi
  402e0e:	e8 6d df ff ff       	callq  400d80 <alarm@plt>
  402e13:	5b                   	pop    %rbx
  402e14:	c3                   	retq   
  402e15:	bb 00 00 00 00       	mov    $0x0,%ebx
  402e1a:	eb df                	jmp    402dfb <init_timeout+0xb>
  402e1c:	f3 c3                	repz retq 

0000000000402e1e <init_driver>:
  402e1e:	41 54                	push   %r12
  402e20:	55                   	push   %rbp
  402e21:	53                   	push   %rbx
  402e22:	48 83 ec 20          	sub    $0x20,%rsp
  402e26:	49 89 fc             	mov    %rdi,%r12
  402e29:	64 48 8b 04 25 28 00 	mov    %fs:0x28,%rax
  402e30:	00 00 
  402e32:	48 89 44 24 18       	mov    %rax,0x18(%rsp)
  402e37:	31 c0                	xor    %eax,%eax
  402e39:	be 01 00 00 00       	mov    $0x1,%esi
  402e3e:	bf 0d 00 00 00       	mov    $0xd,%edi
  402e43:	e8 78 df ff ff       	callq  400dc0 <signal@plt>
  402e48:	be 01 00 00 00       	mov    $0x1,%esi
  402e4d:	bf 1d 00 00 00       	mov    $0x1d,%edi
  402e52:	e8 69 df ff ff       	callq  400dc0 <signal@plt>
  402e57:	be 01 00 00 00       	mov    $0x1,%esi
  402e5c:	bf 1d 00 00 00       	mov    $0x1d,%edi
  402e61:	e8 5a df ff ff       	callq  400dc0 <signal@plt>
  402e66:	ba 00 00 00 00       	mov    $0x0,%edx
  402e6b:	be 01 00 00 00       	mov    $0x1,%esi
  402e70:	bf 02 00 00 00       	mov    $0x2,%edi
  402e75:	e8 76 e0 ff ff       	callq  400ef0 <socket@plt>
  402e7a:	85 c0                	test   %eax,%eax
  402e7c:	0f 88 a3 00 00 00    	js     402f25 <init_driver+0x107>
  402e82:	89 c3                	mov    %eax,%ebx
  402e84:	48 8d 3d 51 0b 00 00 	lea    0xb51(%rip),%rdi        # 4039dc <trans_char+0xec>
  402e8b:	e8 40 df ff ff       	callq  400dd0 <gethostbyname@plt>
  402e90:	48 85 c0             	test   %rax,%rax
  402e93:	0f 84 df 00 00 00    	je     402f78 <init_driver+0x15a>
  402e99:	48 89 e5             	mov    %rsp,%rbp
  402e9c:	48 c7 44 24 02 00 00 	movq   $0x0,0x2(%rsp)
  402ea3:	00 00 
  402ea5:	c7 45 0a 00 00 00 00 	movl   $0x0,0xa(%rbp)
  402eac:	66 c7 45 0e 00 00    	movw   $0x0,0xe(%rbp)
  402eb2:	66 c7 04 24 02 00    	movw   $0x2,(%rsp)
  402eb8:	48 63 50 14          	movslq 0x14(%rax),%rdx
  402ebc:	48 8b 40 18          	mov    0x18(%rax),%rax
  402ec0:	48 8b 30             	mov    (%rax),%rsi
  402ec3:	48 8d 7d 04          	lea    0x4(%rbp),%rdi
  402ec7:	b9 0c 00 00 00       	mov    $0xc,%ecx
  402ecc:	e8 0f df ff ff       	callq  400de0 <__memmove_chk@plt>
  402ed1:	66 c7 44 24 02 0b b8 	movw   $0xb80b,0x2(%rsp)
  402ed8:	ba 10 00 00 00       	mov    $0x10,%edx
  402edd:	48 89 ee             	mov    %rbp,%rsi
  402ee0:	89 df                	mov    %ebx,%edi
  402ee2:	e8 d9 df ff ff       	callq  400ec0 <connect@plt>
  402ee7:	85 c0                	test   %eax,%eax
  402ee9:	0f 88 fb 00 00 00    	js     402fea <init_driver+0x1cc>
  402eef:	89 df                	mov    %ebx,%edi
  402ef1:	e8 9a de ff ff       	callq  400d90 <close@plt>
  402ef6:	66 41 c7 04 24 4f 4b 	movw   $0x4b4f,(%r12)
  402efd:	41 c6 44 24 02 00    	movb   $0x0,0x2(%r12)
  402f03:	b8 00 00 00 00       	mov    $0x0,%eax
  402f08:	48 8b 4c 24 18       	mov    0x18(%rsp),%rcx
  402f0d:	64 48 33 0c 25 28 00 	xor    %fs:0x28,%rcx
  402f14:	00 00 
  402f16:	0f 85 28 01 00 00    	jne    403044 <init_driver+0x226>
  402f1c:	48 83 c4 20          	add    $0x20,%rsp
  402f20:	5b                   	pop    %rbx
  402f21:	5d                   	pop    %rbp
  402f22:	41 5c                	pop    %r12
  402f24:	c3                   	retq   
  402f25:	48 b8 45 72 72 6f 72 	movabs $0x43203a726f727245,%rax
  402f2c:	3a 20 43 
  402f2f:	48 ba 6c 69 65 6e 74 	movabs $0x6e7520746e65696c,%rdx
  402f36:	20 75 6e 
  402f39:	49 89 04 24          	mov    %rax,(%r12)
  402f3d:	49 89 54 24 08       	mov    %rdx,0x8(%r12)
  402f42:	48 b8 61 62 6c 65 20 	movabs $0x206f7420656c6261,%rax
  402f49:	74 6f 20 
  402f4c:	48 ba 63 72 65 61 74 	movabs $0x7320657461657263,%rdx
  402f53:	65 20 73 
  402f56:	49 89 44 24 10       	mov    %rax,0x10(%r12)
  402f5b:	49 89 54 24 18       	mov    %rdx,0x18(%r12)
  402f60:	41 c7 44 24 20 6f 63 	movl   $0x656b636f,0x20(%r12)
  402f67:	6b 65 
  402f69:	66 41 c7 44 24 24 74 	movw   $0x74,0x24(%r12)
  402f70:	00 
  402f71:	b8 ff ff ff ff       	mov    $0xffffffff,%eax
  402f76:	eb 90                	jmp    402f08 <init_driver+0xea>
  402f78:	48 b8 45 72 72 6f 72 	movabs $0x44203a726f727245,%rax
  402f7f:	3a 20 44 
  402f82:	48 ba 4e 53 20 69 73 	movabs $0x6e7520736920534e,%rdx
  402f89:	20 75 6e 
  402f8c:	49 89 04 24          	mov    %rax,(%r12)
  402f90:	49 89 54 24 08       	mov    %rdx,0x8(%r12)
  402f95:	48 b8 61 62 6c 65 20 	movabs $0x206f7420656c6261,%rax
  402f9c:	74 6f 20 
  402f9f:	48 ba 72 65 73 6f 6c 	movabs $0x2065766c6f736572,%rdx
  402fa6:	76 65 20 
  402fa9:	49 89 44 24 10       	mov    %rax,0x10(%r12)
  402fae:	49 89 54 24 18       	mov    %rdx,0x18(%r12)
  402fb3:	48 b8 73 65 72 76 65 	movabs $0x6120726576726573,%rax
  402fba:	72 20 61 
  402fbd:	49 89 44 24 20       	mov    %rax,0x20(%r12)
  402fc2:	41 c7 44 24 28 64 64 	movl   $0x65726464,0x28(%r12)
  402fc9:	72 65 
  402fcb:	66 41 c7 44 24 2c 73 	movw   $0x7373,0x2c(%r12)
  402fd2:	73 
  402fd3:	41 c6 44 24 2e 00    	movb   $0x0,0x2e(%r12)
  402fd9:	89 df                	mov    %ebx,%edi
  402fdb:	e8 b0 dd ff ff       	callq  400d90 <close@plt>
  402fe0:	b8 ff ff ff ff       	mov    $0xffffffff,%eax
  402fe5:	e9 1e ff ff ff       	jmpq   402f08 <init_driver+0xea>
  402fea:	48 b8 45 72 72 6f 72 	movabs $0x55203a726f727245,%rax
  402ff1:	3a 20 55 
  402ff4:	48 ba 6e 61 62 6c 65 	movabs $0x6f7420656c62616e,%rdx
  402ffb:	20 74 6f 
  402ffe:	49 89 04 24          	mov    %rax,(%r12)
  403002:	49 89 54 24 08       	mov    %rdx,0x8(%r12)
  403007:	48 b8 20 63 6f 6e 6e 	movabs $0x7463656e6e6f6320,%rax
  40300e:	65 63 74 
  403011:	48 ba 20 74 6f 20 73 	movabs $0x76726573206f7420,%rdx
  403018:	65 72 76 
  40301b:	49 89 44 24 10       	mov    %rax,0x10(%r12)
  403020:	49 89 54 24 18       	mov    %rdx,0x18(%r12)
  403025:	66 41 c7 44 24 20 65 	movw   $0x7265,0x20(%r12)
  40302c:	72 
  40302d:	41 c6 44 24 22 00    	movb   $0x0,0x22(%r12)
  403033:	89 df                	mov    %ebx,%edi
  403035:	e8 56 dd ff ff       	callq  400d90 <close@plt>
  40303a:	b8 ff ff ff ff       	mov    $0xffffffff,%eax
  40303f:	e9 c4 fe ff ff       	jmpq   402f08 <init_driver+0xea>
  403044:	e8 45 f1 ff ff       	callq  40218e <__stack_chk_fail>

0000000000403049 <driver_post>:
  403049:	53                   	push   %rbx
  40304a:	4c 89 cb             	mov    %r9,%rbx
  40304d:	45 85 c0             	test   %r8d,%r8d
  403050:	75 18                	jne    40306a <driver_post+0x21>
  403052:	48 85 ff             	test   %rdi,%rdi
  403055:	74 05                	je     40305c <driver_post+0x13>
  403057:	80 3f 00             	cmpb   $0x0,(%rdi)
  40305a:	75 37                	jne    403093 <driver_post+0x4a>
  40305c:	66 c7 03 4f 4b       	movw   $0x4b4f,(%rbx)
  403061:	c6 43 02 00          	movb   $0x0,0x2(%rbx)
  403065:	44 89 c0             	mov    %r8d,%eax
  403068:	5b                   	pop    %rbx
  403069:	c3                   	retq   
  40306a:	48 89 ca             	mov    %rcx,%rdx
  40306d:	48 8d 35 78 09 00 00 	lea    0x978(%rip),%rsi        # 4039ec <trans_char+0xfc>
  403074:	bf 01 00 00 00       	mov    $0x1,%edi
  403079:	b8 00 00 00 00       	mov    $0x0,%eax
  40307e:	e8 dd dd ff ff       	callq  400e60 <__printf_chk@plt>
  403083:	66 c7 03 4f 4b       	movw   $0x4b4f,(%rbx)
  403088:	c6 43 02 00          	movb   $0x0,0x2(%rbx)
  40308c:	b8 00 00 00 00       	mov    $0x0,%eax
  403091:	eb d5                	jmp    403068 <driver_post+0x1f>
  403093:	48 83 ec 08          	sub    $0x8,%rsp
  403097:	41 51                	push   %r9
  403099:	49 89 c9             	mov    %rcx,%r9
  40309c:	49 89 d0             	mov    %rdx,%r8
  40309f:	48 89 f9             	mov    %rdi,%rcx
  4030a2:	48 89 f2             	mov    %rsi,%rdx
  4030a5:	be b8 0b 00 00       	mov    $0xbb8,%esi
  4030aa:	48 8d 3d 2b 09 00 00 	lea    0x92b(%rip),%rdi        # 4039dc <trans_char+0xec>
  4030b1:	e8 9c f5 ff ff       	callq  402652 <submitr>
  4030b6:	48 83 c4 10          	add    $0x10,%rsp
  4030ba:	eb ac                	jmp    403068 <driver_post+0x1f>

00000000004030bc <check>:
  4030bc:	89 f8                	mov    %edi,%eax
  4030be:	c1 e8 1c             	shr    $0x1c,%eax
  4030c1:	85 c0                	test   %eax,%eax
  4030c3:	74 1d                	je     4030e2 <check+0x26>
  4030c5:	b9 00 00 00 00       	mov    $0x0,%ecx
  4030ca:	83 f9 1f             	cmp    $0x1f,%ecx
  4030cd:	7f 0d                	jg     4030dc <check+0x20>
  4030cf:	89 f8                	mov    %edi,%eax
  4030d1:	d3 e8                	shr    %cl,%eax
  4030d3:	3c 0a                	cmp    $0xa,%al
  4030d5:	74 11                	je     4030e8 <check+0x2c>
  4030d7:	83 c1 08             	add    $0x8,%ecx
  4030da:	eb ee                	jmp    4030ca <check+0xe>
  4030dc:	b8 01 00 00 00       	mov    $0x1,%eax
  4030e1:	c3                   	retq   
  4030e2:	b8 00 00 00 00       	mov    $0x0,%eax
  4030e7:	c3                   	retq   
  4030e8:	b8 00 00 00 00       	mov    $0x0,%eax
  4030ed:	c3                   	retq   

00000000004030ee <gencookie>:
  4030ee:	53                   	push   %rbx
  4030ef:	83 c7 01             	add    $0x1,%edi
  4030f2:	e8 09 dc ff ff       	callq  400d00 <srandom@plt>
  4030f7:	e8 24 dd ff ff       	callq  400e20 <random@plt>
  4030fc:	89 c3                	mov    %eax,%ebx
  4030fe:	89 c7                	mov    %eax,%edi
  403100:	e8 b7 ff ff ff       	callq  4030bc <check>
  403105:	85 c0                	test   %eax,%eax
  403107:	74 ee                	je     4030f7 <gencookie+0x9>
  403109:	89 d8                	mov    %ebx,%eax
  40310b:	5b                   	pop    %rbx
  40310c:	c3                   	retq   
  40310d:	0f 1f 00             	nopl   (%rax)

0000000000403110 <__libc_csu_init>:
  403110:	41 57                	push   %r15
  403112:	41 56                	push   %r14
  403114:	49 89 d7             	mov    %rdx,%r15
  403117:	41 55                	push   %r13
  403119:	41 54                	push   %r12
  40311b:	4c 8d 25 de 1c 20 00 	lea    0x201cde(%rip),%r12        # 604e00 <__frame_dummy_init_array_entry>
  403122:	55                   	push   %rbp
  403123:	48 8d 2d de 1c 20 00 	lea    0x201cde(%rip),%rbp        # 604e08 <__init_array_end>
  40312a:	53                   	push   %rbx
  40312b:	41 89 fd             	mov    %edi,%r13d
  40312e:	49 89 f6             	mov    %rsi,%r14
  403131:	4c 29 e5             	sub    %r12,%rbp
  403134:	48 83 ec 08          	sub    $0x8,%rsp
  403138:	48 c1 fd 03          	sar    $0x3,%rbp
  40313c:	e8 6f db ff ff       	callq  400cb0 <_init>
  403141:	48 85 ed             	test   %rbp,%rbp
  403144:	74 20                	je     403166 <__libc_csu_init+0x56>
  403146:	31 db                	xor    %ebx,%ebx
  403148:	0f 1f 84 00 00 00 00 	nopl   0x0(%rax,%rax,1)
  40314f:	00 
  403150:	4c 89 fa             	mov    %r15,%rdx
  403153:	4c 89 f6             	mov    %r14,%rsi
  403156:	44 89 ef             	mov    %r13d,%edi
  403159:	41 ff 14 dc          	callq  *(%r12,%rbx,8)
  40315d:	48 83 c3 01          	add    $0x1,%rbx
  403161:	48 39 dd             	cmp    %rbx,%rbp
  403164:	75 ea                	jne    403150 <__libc_csu_init+0x40>
  403166:	48 83 c4 08          	add    $0x8,%rsp
  40316a:	5b                   	pop    %rbx
  40316b:	5d                   	pop    %rbp
  40316c:	41 5c                	pop    %r12
  40316e:	41 5d                	pop    %r13
  403170:	41 5e                	pop    %r14
  403172:	41 5f                	pop    %r15
  403174:	c3                   	retq   
  403175:	90                   	nop
  403176:	66 2e 0f 1f 84 00 00 	nopw   %cs:0x0(%rax,%rax,1)
  40317d:	00 00 00 

0000000000403180 <__libc_csu_fini>:
  403180:	f3 c3                	repz retq 

Disassembly of section .fini:

0000000000403184 <_fini>:
  403184:	48 83 ec 08          	sub    $0x8,%rsp
  403188:	48 83 c4 08          	add    $0x8,%rsp
  40318c:	c3                   	retq   
