
starget:     file format elf64-x86-64


Disassembly of section .init:

0000000000400cb0 <_init>:
  400cb0:	48 83 ec 08          	sub    $0x8,%rsp
  400cb4:	48 8b 05 3d 43 20 00 	mov    0x20433d(%rip),%rax        # 604ff8 <__gmon_start__>
  400cbb:	48 85 c0             	test   %rax,%rax
  400cbe:	74 02                	je     400cc2 <_init+0x12>
  400cc0:	ff d0                	callq  *%rax
  400cc2:	48 83 c4 08          	add    $0x8,%rsp
  400cc6:	c3                   	retq   

Disassembly of section .plt:

0000000000400cd0 <.plt>:
  400cd0:	ff 35 32 43 20 00    	pushq  0x204332(%rip)        # 605008 <_GLOBAL_OFFSET_TABLE_+0x8>
  400cd6:	ff 25 34 43 20 00    	jmpq   *0x204334(%rip)        # 605010 <_GLOBAL_OFFSET_TABLE_+0x10>
  400cdc:	0f 1f 40 00          	nopl   0x0(%rax)

0000000000400ce0 <strcasecmp@plt>:
  400ce0:	ff 25 32 43 20 00    	jmpq   *0x204332(%rip)        # 605018 <strcasecmp@GLIBC_2.2.5>
  400ce6:	68 00 00 00 00       	pushq  $0x0
  400ceb:	e9 e0 ff ff ff       	jmpq   400cd0 <.plt>

0000000000400cf0 <__errno_location@plt>:
  400cf0:	ff 25 2a 43 20 00    	jmpq   *0x20432a(%rip)        # 605020 <__errno_location@GLIBC_2.2.5>
  400cf6:	68 01 00 00 00       	pushq  $0x1
  400cfb:	e9 d0 ff ff ff       	jmpq   400cd0 <.plt>

0000000000400d00 <srandom@plt>:
  400d00:	ff 25 22 43 20 00    	jmpq   *0x204322(%rip)        # 605028 <srandom@GLIBC_2.2.5>
  400d06:	68 02 00 00 00       	pushq  $0x2
  400d0b:	e9 c0 ff ff ff       	jmpq   400cd0 <.plt>

0000000000400d10 <strncpy@plt>:
  400d10:	ff 25 1a 43 20 00    	jmpq   *0x20431a(%rip)        # 605030 <strncpy@GLIBC_2.2.5>
  400d16:	68 03 00 00 00       	pushq  $0x3
  400d1b:	e9 b0 ff ff ff       	jmpq   400cd0 <.plt>

0000000000400d20 <strncmp@plt>:
  400d20:	ff 25 12 43 20 00    	jmpq   *0x204312(%rip)        # 605038 <strncmp@GLIBC_2.2.5>
  400d26:	68 04 00 00 00       	pushq  $0x4
  400d2b:	e9 a0 ff ff ff       	jmpq   400cd0 <.plt>

0000000000400d30 <strcpy@plt>:
  400d30:	ff 25 0a 43 20 00    	jmpq   *0x20430a(%rip)        # 605040 <strcpy@GLIBC_2.2.5>
  400d36:	68 05 00 00 00       	pushq  $0x5
  400d3b:	e9 90 ff ff ff       	jmpq   400cd0 <.plt>

0000000000400d40 <puts@plt>:
  400d40:	ff 25 02 43 20 00    	jmpq   *0x204302(%rip)        # 605048 <puts@GLIBC_2.2.5>
  400d46:	68 06 00 00 00       	pushq  $0x6
  400d4b:	e9 80 ff ff ff       	jmpq   400cd0 <.plt>

0000000000400d50 <write@plt>:
  400d50:	ff 25 fa 42 20 00    	jmpq   *0x2042fa(%rip)        # 605050 <write@GLIBC_2.2.5>
  400d56:	68 07 00 00 00       	pushq  $0x7
  400d5b:	e9 70 ff ff ff       	jmpq   400cd0 <.plt>

0000000000400d60 <mmap@plt>:
  400d60:	ff 25 f2 42 20 00    	jmpq   *0x2042f2(%rip)        # 605058 <mmap@GLIBC_2.2.5>
  400d66:	68 08 00 00 00       	pushq  $0x8
  400d6b:	e9 60 ff ff ff       	jmpq   400cd0 <.plt>

0000000000400d70 <memset@plt>:
  400d70:	ff 25 ea 42 20 00    	jmpq   *0x2042ea(%rip)        # 605060 <memset@GLIBC_2.2.5>
  400d76:	68 09 00 00 00       	pushq  $0x9
  400d7b:	e9 50 ff ff ff       	jmpq   400cd0 <.plt>

0000000000400d80 <alarm@plt>:
  400d80:	ff 25 e2 42 20 00    	jmpq   *0x2042e2(%rip)        # 605068 <alarm@GLIBC_2.2.5>
  400d86:	68 0a 00 00 00       	pushq  $0xa
  400d8b:	e9 40 ff ff ff       	jmpq   400cd0 <.plt>

0000000000400d90 <close@plt>:
  400d90:	ff 25 da 42 20 00    	jmpq   *0x2042da(%rip)        # 605070 <close@GLIBC_2.2.5>
  400d96:	68 0b 00 00 00       	pushq  $0xb
  400d9b:	e9 30 ff ff ff       	jmpq   400cd0 <.plt>

0000000000400da0 <read@plt>:
  400da0:	ff 25 d2 42 20 00    	jmpq   *0x2042d2(%rip)        # 605078 <read@GLIBC_2.2.5>
  400da6:	68 0c 00 00 00       	pushq  $0xc
  400dab:	e9 20 ff ff ff       	jmpq   400cd0 <.plt>

0000000000400db0 <strcmp@plt>:
  400db0:	ff 25 ca 42 20 00    	jmpq   *0x2042ca(%rip)        # 605080 <strcmp@GLIBC_2.2.5>
  400db6:	68 0d 00 00 00       	pushq  $0xd
  400dbb:	e9 10 ff ff ff       	jmpq   400cd0 <.plt>

0000000000400dc0 <signal@plt>:
  400dc0:	ff 25 c2 42 20 00    	jmpq   *0x2042c2(%rip)        # 605088 <signal@GLIBC_2.2.5>
  400dc6:	68 0e 00 00 00       	pushq  $0xe
  400dcb:	e9 00 ff ff ff       	jmpq   400cd0 <.plt>

0000000000400dd0 <gethostbyname@plt>:
  400dd0:	ff 25 ba 42 20 00    	jmpq   *0x2042ba(%rip)        # 605090 <gethostbyname@GLIBC_2.2.5>
  400dd6:	68 0f 00 00 00       	pushq  $0xf
  400ddb:	e9 f0 fe ff ff       	jmpq   400cd0 <.plt>

0000000000400de0 <__memmove_chk@plt>:
  400de0:	ff 25 b2 42 20 00    	jmpq   *0x2042b2(%rip)        # 605098 <__memmove_chk@GLIBC_2.3.4>
  400de6:	68 10 00 00 00       	pushq  $0x10
  400deb:	e9 e0 fe ff ff       	jmpq   400cd0 <.plt>

0000000000400df0 <strtol@plt>:
  400df0:	ff 25 aa 42 20 00    	jmpq   *0x2042aa(%rip)        # 6050a0 <strtol@GLIBC_2.2.5>
  400df6:	68 11 00 00 00       	pushq  $0x11
  400dfb:	e9 d0 fe ff ff       	jmpq   400cd0 <.plt>

0000000000400e00 <memcpy@plt>:
  400e00:	ff 25 a2 42 20 00    	jmpq   *0x2042a2(%rip)        # 6050a8 <memcpy@GLIBC_2.14>
  400e06:	68 12 00 00 00       	pushq  $0x12
  400e0b:	e9 c0 fe ff ff       	jmpq   400cd0 <.plt>

0000000000400e10 <time@plt>:
  400e10:	ff 25 9a 42 20 00    	jmpq   *0x20429a(%rip)        # 6050b0 <time@GLIBC_2.2.5>
  400e16:	68 13 00 00 00       	pushq  $0x13
  400e1b:	e9 b0 fe ff ff       	jmpq   400cd0 <.plt>

0000000000400e20 <random@plt>:
  400e20:	ff 25 92 42 20 00    	jmpq   *0x204292(%rip)        # 6050b8 <random@GLIBC_2.2.5>
  400e26:	68 14 00 00 00       	pushq  $0x14
  400e2b:	e9 a0 fe ff ff       	jmpq   400cd0 <.plt>

0000000000400e30 <_IO_getc@plt>:
  400e30:	ff 25 8a 42 20 00    	jmpq   *0x20428a(%rip)        # 6050c0 <_IO_getc@GLIBC_2.2.5>
  400e36:	68 15 00 00 00       	pushq  $0x15
  400e3b:	e9 90 fe ff ff       	jmpq   400cd0 <.plt>

0000000000400e40 <__isoc99_sscanf@plt>:
  400e40:	ff 25 82 42 20 00    	jmpq   *0x204282(%rip)        # 6050c8 <__isoc99_sscanf@GLIBC_2.7>
  400e46:	68 16 00 00 00       	pushq  $0x16
  400e4b:	e9 80 fe ff ff       	jmpq   400cd0 <.plt>

0000000000400e50 <munmap@plt>:
  400e50:	ff 25 7a 42 20 00    	jmpq   *0x20427a(%rip)        # 6050d0 <munmap@GLIBC_2.2.5>
  400e56:	68 17 00 00 00       	pushq  $0x17
  400e5b:	e9 70 fe ff ff       	jmpq   400cd0 <.plt>

0000000000400e60 <__printf_chk@plt>:
  400e60:	ff 25 72 42 20 00    	jmpq   *0x204272(%rip)        # 6050d8 <__printf_chk@GLIBC_2.3.4>
  400e66:	68 18 00 00 00       	pushq  $0x18
  400e6b:	e9 60 fe ff ff       	jmpq   400cd0 <.plt>

0000000000400e70 <fopen@plt>:
  400e70:	ff 25 6a 42 20 00    	jmpq   *0x20426a(%rip)        # 6050e0 <fopen@GLIBC_2.2.5>
  400e76:	68 19 00 00 00       	pushq  $0x19
  400e7b:	e9 50 fe ff ff       	jmpq   400cd0 <.plt>

0000000000400e80 <getopt@plt>:
  400e80:	ff 25 62 42 20 00    	jmpq   *0x204262(%rip)        # 6050e8 <getopt@GLIBC_2.2.5>
  400e86:	68 1a 00 00 00       	pushq  $0x1a
  400e8b:	e9 40 fe ff ff       	jmpq   400cd0 <.plt>

0000000000400e90 <strtoul@plt>:
  400e90:	ff 25 5a 42 20 00    	jmpq   *0x20425a(%rip)        # 6050f0 <strtoul@GLIBC_2.2.5>
  400e96:	68 1b 00 00 00       	pushq  $0x1b
  400e9b:	e9 30 fe ff ff       	jmpq   400cd0 <.plt>

0000000000400ea0 <gethostname@plt>:
  400ea0:	ff 25 52 42 20 00    	jmpq   *0x204252(%rip)        # 6050f8 <gethostname@GLIBC_2.2.5>
  400ea6:	68 1c 00 00 00       	pushq  $0x1c
  400eab:	e9 20 fe ff ff       	jmpq   400cd0 <.plt>

0000000000400eb0 <exit@plt>:
  400eb0:	ff 25 4a 42 20 00    	jmpq   *0x20424a(%rip)        # 605100 <exit@GLIBC_2.2.5>
  400eb6:	68 1d 00 00 00       	pushq  $0x1d
  400ebb:	e9 10 fe ff ff       	jmpq   400cd0 <.plt>

0000000000400ec0 <connect@plt>:
  400ec0:	ff 25 42 42 20 00    	jmpq   *0x204242(%rip)        # 605108 <connect@GLIBC_2.2.5>
  400ec6:	68 1e 00 00 00       	pushq  $0x1e
  400ecb:	e9 00 fe ff ff       	jmpq   400cd0 <.plt>

0000000000400ed0 <__fprintf_chk@plt>:
  400ed0:	ff 25 3a 42 20 00    	jmpq   *0x20423a(%rip)        # 605110 <__fprintf_chk@GLIBC_2.3.4>
  400ed6:	68 1f 00 00 00       	pushq  $0x1f
  400edb:	e9 f0 fd ff ff       	jmpq   400cd0 <.plt>

0000000000400ee0 <__sprintf_chk@plt>:
  400ee0:	ff 25 32 42 20 00    	jmpq   *0x204232(%rip)        # 605118 <__sprintf_chk@GLIBC_2.3.4>
  400ee6:	68 20 00 00 00       	pushq  $0x20
  400eeb:	e9 e0 fd ff ff       	jmpq   400cd0 <.plt>

0000000000400ef0 <socket@plt>:
  400ef0:	ff 25 2a 42 20 00    	jmpq   *0x20422a(%rip)        # 605120 <socket@GLIBC_2.2.5>
  400ef6:	68 21 00 00 00       	pushq  $0x21
  400efb:	e9 d0 fd ff ff       	jmpq   400cd0 <.plt>

Disassembly of section .text:

0000000000400f00 <_start>:
  400f00:	31 ed                	xor    %ebp,%ebp
  400f02:	49 89 d1             	mov    %rdx,%r9
  400f05:	5e                   	pop    %rsi
  400f06:	48 89 e2             	mov    %rsp,%rdx
  400f09:	48 83 e4 f0          	and    $0xfffffffffffffff0,%rsp
  400f0d:	50                   	push   %rax
  400f0e:	54                   	push   %rsp
  400f0f:	49 c7 c0 a0 32 40 00 	mov    $0x4032a0,%r8
  400f16:	48 c7 c1 30 32 40 00 	mov    $0x403230,%rcx
  400f1d:	48 c7 c7 0e 12 40 00 	mov    $0x40120e,%rdi
  400f24:	ff 15 c6 40 20 00    	callq  *0x2040c6(%rip)        # 604ff0 <__libc_start_main@GLIBC_2.2.5>
  400f2a:	f4                   	hlt    
  400f2b:	0f 1f 44 00 00       	nopl   0x0(%rax,%rax,1)

0000000000400f30 <_dl_relocate_static_pie>:
  400f30:	f3 c3                	repz retq 
  400f32:	66 2e 0f 1f 84 00 00 	nopw   %cs:0x0(%rax,%rax,1)
  400f39:	00 00 00 
  400f3c:	0f 1f 40 00          	nopl   0x0(%rax)

0000000000400f40 <deregister_tm_clones>:
  400f40:	55                   	push   %rbp
  400f41:	b8 b0 54 60 00       	mov    $0x6054b0,%eax
  400f46:	48 3d b0 54 60 00    	cmp    $0x6054b0,%rax
  400f4c:	48 89 e5             	mov    %rsp,%rbp
  400f4f:	74 17                	je     400f68 <deregister_tm_clones+0x28>
  400f51:	b8 00 00 00 00       	mov    $0x0,%eax
  400f56:	48 85 c0             	test   %rax,%rax
  400f59:	74 0d                	je     400f68 <deregister_tm_clones+0x28>
  400f5b:	5d                   	pop    %rbp
  400f5c:	bf b0 54 60 00       	mov    $0x6054b0,%edi
  400f61:	ff e0                	jmpq   *%rax
  400f63:	0f 1f 44 00 00       	nopl   0x0(%rax,%rax,1)
  400f68:	5d                   	pop    %rbp
  400f69:	c3                   	retq   
  400f6a:	66 0f 1f 44 00 00    	nopw   0x0(%rax,%rax,1)

0000000000400f70 <register_tm_clones>:
  400f70:	be b0 54 60 00       	mov    $0x6054b0,%esi
  400f75:	55                   	push   %rbp
  400f76:	48 81 ee b0 54 60 00 	sub    $0x6054b0,%rsi
  400f7d:	48 89 e5             	mov    %rsp,%rbp
  400f80:	48 c1 fe 03          	sar    $0x3,%rsi
  400f84:	48 89 f0             	mov    %rsi,%rax
  400f87:	48 c1 e8 3f          	shr    $0x3f,%rax
  400f8b:	48 01 c6             	add    %rax,%rsi
  400f8e:	48 d1 fe             	sar    %rsi
  400f91:	74 15                	je     400fa8 <register_tm_clones+0x38>
  400f93:	b8 00 00 00 00       	mov    $0x0,%eax
  400f98:	48 85 c0             	test   %rax,%rax
  400f9b:	74 0b                	je     400fa8 <register_tm_clones+0x38>
  400f9d:	5d                   	pop    %rbp
  400f9e:	bf b0 54 60 00       	mov    $0x6054b0,%edi
  400fa3:	ff e0                	jmpq   *%rax
  400fa5:	0f 1f 00             	nopl   (%rax)
  400fa8:	5d                   	pop    %rbp
  400fa9:	c3                   	retq   
  400faa:	66 0f 1f 44 00 00    	nopw   0x0(%rax,%rax,1)

0000000000400fb0 <__do_global_dtors_aux>:
  400fb0:	80 3d 31 45 20 00 00 	cmpb   $0x0,0x204531(%rip)        # 6054e8 <completed.7698>
  400fb7:	75 17                	jne    400fd0 <__do_global_dtors_aux+0x20>
  400fb9:	55                   	push   %rbp
  400fba:	48 89 e5             	mov    %rsp,%rbp
  400fbd:	e8 7e ff ff ff       	callq  400f40 <deregister_tm_clones>
  400fc2:	c6 05 1f 45 20 00 01 	movb   $0x1,0x20451f(%rip)        # 6054e8 <completed.7698>
  400fc9:	5d                   	pop    %rbp
  400fca:	c3                   	retq   
  400fcb:	0f 1f 44 00 00       	nopl   0x0(%rax,%rax,1)
  400fd0:	f3 c3                	repz retq 
  400fd2:	0f 1f 40 00          	nopl   0x0(%rax)
  400fd6:	66 2e 0f 1f 84 00 00 	nopw   %cs:0x0(%rax,%rax,1)
  400fdd:	00 00 00 

0000000000400fe0 <frame_dummy>:
  400fe0:	55                   	push   %rbp
  400fe1:	48 89 e5             	mov    %rsp,%rbp
  400fe4:	5d                   	pop    %rbp
  400fe5:	eb 89                	jmp    400f70 <register_tm_clones>

0000000000400fe7 <usage>:
  400fe7:	48 83 ec 08          	sub    $0x8,%rsp
  400feb:	48 89 fa             	mov    %rdi,%rdx
  400fee:	83 3d 33 45 20 00 00 	cmpl   $0x0,0x204533(%rip)        # 605528 <is_checker>
  400ff5:	74 50                	je     401047 <usage+0x60>
  400ff7:	48 8d 35 ba 22 00 00 	lea    0x22ba(%rip),%rsi        # 4032b8 <_IO_stdin_used+0x8>
  400ffe:	bf 01 00 00 00       	mov    $0x1,%edi
  401003:	b8 00 00 00 00       	mov    $0x0,%eax
  401008:	e8 53 fe ff ff       	callq  400e60 <__printf_chk@plt>
  40100d:	48 8d 3d dc 22 00 00 	lea    0x22dc(%rip),%rdi        # 4032f0 <_IO_stdin_used+0x40>
  401014:	e8 27 fd ff ff       	callq  400d40 <puts@plt>
  401019:	48 8d 3d 60 24 00 00 	lea    0x2460(%rip),%rdi        # 403480 <_IO_stdin_used+0x1d0>
  401020:	e8 1b fd ff ff       	callq  400d40 <puts@plt>
  401025:	48 8d 3d ec 22 00 00 	lea    0x22ec(%rip),%rdi        # 403318 <_IO_stdin_used+0x68>
  40102c:	e8 0f fd ff ff       	callq  400d40 <puts@plt>
  401031:	48 8d 3d 62 24 00 00 	lea    0x2462(%rip),%rdi        # 40349a <_IO_stdin_used+0x1ea>
  401038:	e8 03 fd ff ff       	callq  400d40 <puts@plt>
  40103d:	bf 00 00 00 00       	mov    $0x0,%edi
  401042:	e8 69 fe ff ff       	callq  400eb0 <exit@plt>
  401047:	48 8d 35 68 24 00 00 	lea    0x2468(%rip),%rsi        # 4034b6 <_IO_stdin_used+0x206>
  40104e:	bf 01 00 00 00       	mov    $0x1,%edi
  401053:	b8 00 00 00 00       	mov    $0x0,%eax
  401058:	e8 03 fe ff ff       	callq  400e60 <__printf_chk@plt>
  40105d:	48 8d 3d dc 22 00 00 	lea    0x22dc(%rip),%rdi        # 403340 <_IO_stdin_used+0x90>
  401064:	e8 d7 fc ff ff       	callq  400d40 <puts@plt>
  401069:	48 8d 3d f8 22 00 00 	lea    0x22f8(%rip),%rdi        # 403368 <_IO_stdin_used+0xb8>
  401070:	e8 cb fc ff ff       	callq  400d40 <puts@plt>
  401075:	48 8d 3d 58 24 00 00 	lea    0x2458(%rip),%rdi        # 4034d4 <_IO_stdin_used+0x224>
  40107c:	e8 bf fc ff ff       	callq  400d40 <puts@plt>
  401081:	eb ba                	jmp    40103d <usage+0x56>

0000000000401083 <initialize_target>:
  401083:	55                   	push   %rbp
  401084:	53                   	push   %rbx
  401085:	48 81 ec 18 21 00 00 	sub    $0x2118,%rsp
  40108c:	89 f5                	mov    %esi,%ebp
  40108e:	64 48 8b 04 25 28 00 	mov    %fs:0x28,%rax
  401095:	00 00 
  401097:	48 89 84 24 08 21 00 	mov    %rax,0x2108(%rsp)
  40109e:	00 
  40109f:	31 c0                	xor    %eax,%eax
  4010a1:	89 3d 71 44 20 00    	mov    %edi,0x204471(%rip)        # 605518 <check_level>
  4010a7:	8b 3d a3 40 20 00    	mov    0x2040a3(%rip),%edi        # 605150 <target_id>
  4010ad:	e8 59 21 00 00       	callq  40320b <gencookie>
  4010b2:	89 05 6c 44 20 00    	mov    %eax,0x20446c(%rip)        # 605524 <cookie>
  4010b8:	89 c7                	mov    %eax,%edi
  4010ba:	e8 4c 21 00 00       	callq  40320b <gencookie>
  4010bf:	89 05 5b 44 20 00    	mov    %eax,0x20445b(%rip)        # 605520 <authkey>
  4010c5:	8b 05 85 40 20 00    	mov    0x204085(%rip),%eax        # 605150 <target_id>
  4010cb:	8d 78 01             	lea    0x1(%rax),%edi
  4010ce:	e8 2d fc ff ff       	callq  400d00 <srandom@plt>
  4010d3:	e8 48 fd ff ff       	callq  400e20 <random@plt>
  4010d8:	89 c7                	mov    %eax,%edi
  4010da:	e8 93 03 00 00       	callq  401472 <scramble>
  4010df:	89 c3                	mov    %eax,%ebx
  4010e1:	85 ed                	test   %ebp,%ebp
  4010e3:	75 54                	jne    401139 <initialize_target+0xb6>
  4010e5:	b8 00 00 00 00       	mov    $0x0,%eax
  4010ea:	01 d8                	add    %ebx,%eax
  4010ec:	0f b7 c0             	movzwl %ax,%eax
  4010ef:	8d 04 c5 00 01 00 00 	lea    0x100(,%rax,8),%eax
  4010f6:	89 c0                	mov    %eax,%eax
  4010f8:	48 89 05 a1 43 20 00 	mov    %rax,0x2043a1(%rip)        # 6054a0 <buf_offset>
  4010ff:	c6 05 42 50 20 00 73 	movb   $0x73,0x205042(%rip)        # 606148 <target_prefix>
  401106:	83 3d 9b 43 20 00 00 	cmpl   $0x0,0x20439b(%rip)        # 6054a8 <notify>
  40110d:	74 09                	je     401118 <initialize_target+0x95>
  40110f:	83 3d 12 44 20 00 00 	cmpl   $0x0,0x204412(%rip)        # 605528 <is_checker>
  401116:	74 39                	je     401151 <initialize_target+0xce>
  401118:	48 8b 84 24 08 21 00 	mov    0x2108(%rsp),%rax
  40111f:	00 
  401120:	64 48 33 04 25 28 00 	xor    %fs:0x28,%rax
  401127:	00 00 
  401129:	0f 85 da 00 00 00    	jne    401209 <initialize_target+0x186>
  40112f:	48 81 c4 18 21 00 00 	add    $0x2118,%rsp
  401136:	5b                   	pop    %rbx
  401137:	5d                   	pop    %rbp
  401138:	c3                   	retq   
  401139:	bf 00 00 00 00       	mov    $0x0,%edi
  40113e:	e8 cd fc ff ff       	callq  400e10 <time@plt>
  401143:	89 c7                	mov    %eax,%edi
  401145:	e8 b6 fb ff ff       	callq  400d00 <srandom@plt>
  40114a:	e8 d1 fc ff ff       	callq  400e20 <random@plt>
  40114f:	eb 99                	jmp    4010ea <initialize_target+0x67>
  401151:	48 89 e7             	mov    %rsp,%rdi
  401154:	be 00 01 00 00       	mov    $0x100,%esi
  401159:	e8 42 fd ff ff       	callq  400ea0 <gethostname@plt>
  40115e:	89 c5                	mov    %eax,%ebp
  401160:	85 c0                	test   %eax,%eax
  401162:	75 26                	jne    40118a <initialize_target+0x107>
  401164:	89 c3                	mov    %eax,%ebx
  401166:	48 63 c3             	movslq %ebx,%rax
  401169:	48 8d 15 10 40 20 00 	lea    0x204010(%rip),%rdx        # 605180 <host_table>
  401170:	48 8b 3c c2          	mov    (%rdx,%rax,8),%rdi
  401174:	48 85 ff             	test   %rdi,%rdi
  401177:	74 2c                	je     4011a5 <initialize_target+0x122>
  401179:	48 89 e6             	mov    %rsp,%rsi
  40117c:	e8 5f fb ff ff       	callq  400ce0 <strcasecmp@plt>
  401181:	85 c0                	test   %eax,%eax
  401183:	74 1b                	je     4011a0 <initialize_target+0x11d>
  401185:	83 c3 01             	add    $0x1,%ebx
  401188:	eb dc                	jmp    401166 <initialize_target+0xe3>
  40118a:	48 8d 3d 07 22 00 00 	lea    0x2207(%rip),%rdi        # 403398 <_IO_stdin_used+0xe8>
  401191:	e8 aa fb ff ff       	callq  400d40 <puts@plt>
  401196:	bf 08 00 00 00       	mov    $0x8,%edi
  40119b:	e8 10 fd ff ff       	callq  400eb0 <exit@plt>
  4011a0:	bd 01 00 00 00       	mov    $0x1,%ebp
  4011a5:	85 ed                	test   %ebp,%ebp
  4011a7:	74 3d                	je     4011e6 <initialize_target+0x163>
  4011a9:	48 8d bc 24 00 01 00 	lea    0x100(%rsp),%rdi
  4011b0:	00 
  4011b1:	e8 85 1d 00 00       	callq  402f3b <init_driver>
  4011b6:	85 c0                	test   %eax,%eax
  4011b8:	0f 89 5a ff ff ff    	jns    401118 <initialize_target+0x95>
  4011be:	48 8d 94 24 00 01 00 	lea    0x100(%rsp),%rdx
  4011c5:	00 
  4011c6:	48 8d 35 43 22 00 00 	lea    0x2243(%rip),%rsi        # 403410 <_IO_stdin_used+0x160>
  4011cd:	bf 01 00 00 00       	mov    $0x1,%edi
  4011d2:	b8 00 00 00 00       	mov    $0x0,%eax
  4011d7:	e8 84 fc ff ff       	callq  400e60 <__printf_chk@plt>
  4011dc:	bf 08 00 00 00       	mov    $0x8,%edi
  4011e1:	e8 ca fc ff ff       	callq  400eb0 <exit@plt>
  4011e6:	48 89 e2             	mov    %rsp,%rdx
  4011e9:	48 8d 35 e0 21 00 00 	lea    0x21e0(%rip),%rsi        # 4033d0 <_IO_stdin_used+0x120>
  4011f0:	bf 01 00 00 00       	mov    $0x1,%edi
  4011f5:	b8 00 00 00 00       	mov    $0x0,%eax
  4011fa:	e8 61 fc ff ff       	callq  400e60 <__printf_chk@plt>
  4011ff:	bf 08 00 00 00       	mov    $0x8,%edi
  401204:	e8 a7 fc ff ff       	callq  400eb0 <exit@plt>
  401209:	e8 9d 10 00 00       	callq  4022ab <__stack_chk_fail>

000000000040120e <main>:
  40120e:	41 56                	push   %r14
  401210:	41 55                	push   %r13
  401212:	41 54                	push   %r12
  401214:	55                   	push   %rbp
  401215:	53                   	push   %rbx
  401216:	48 83 ec 60          	sub    $0x60,%rsp
  40121a:	89 fd                	mov    %edi,%ebp
  40121c:	48 89 f3             	mov    %rsi,%rbx
  40121f:	64 48 8b 04 25 28 00 	mov    %fs:0x28,%rax
  401226:	00 00 
  401228:	48 89 44 24 58       	mov    %rax,0x58(%rsp)
  40122d:	31 c0                	xor    %eax,%eax
  40122f:	48 b8 53 70 69 72 69 	movabs $0x6465746972697053,%rax
  401236:	74 65 64 
  401239:	48 89 04 24          	mov    %rax,(%rsp)
  40123d:	c7 44 24 08 41 77 61 	movl   $0x79617741,0x8(%rsp)
  401244:	79 
  401245:	66 c7 44 24 0c 43 4e 	movw   $0x4e43,0xc(%rsp)
  40124c:	c6 44 24 0e 00       	movb   $0x0,0xe(%rsp)
  401251:	48 c7 c6 ac 21 40 00 	mov    $0x4021ac,%rsi
  401258:	bf 0b 00 00 00       	mov    $0xb,%edi
  40125d:	e8 5e fb ff ff       	callq  400dc0 <signal@plt>
  401262:	48 c7 c6 58 21 40 00 	mov    $0x402158,%rsi
  401269:	bf 07 00 00 00       	mov    $0x7,%edi
  40126e:	e8 4d fb ff ff       	callq  400dc0 <signal@plt>
  401273:	48 c7 c6 00 22 40 00 	mov    $0x402200,%rsi
  40127a:	bf 04 00 00 00       	mov    $0x4,%edi
  40127f:	e8 3c fb ff ff       	callq  400dc0 <signal@plt>
  401284:	83 3d 9d 42 20 00 00 	cmpl   $0x0,0x20429d(%rip)        # 605528 <is_checker>
  40128b:	75 26                	jne    4012b3 <main+0xa5>
  40128d:	4c 8d 25 59 22 00 00 	lea    0x2259(%rip),%r12        # 4034ed <_IO_stdin_used+0x23d>
  401294:	48 8b 05 25 42 20 00 	mov    0x204225(%rip),%rax        # 6054c0 <stdin@@GLIBC_2.2.5>
  40129b:	48 89 05 6e 42 20 00 	mov    %rax,0x20426e(%rip)        # 605510 <infile>
  4012a2:	41 bd 00 00 00 00    	mov    $0x0,%r13d
  4012a8:	41 be 00 00 00 00    	mov    $0x0,%r14d
  4012ae:	e9 8d 00 00 00       	jmpq   401340 <main+0x132>
  4012b3:	48 c7 c6 54 22 40 00 	mov    $0x402254,%rsi
  4012ba:	bf 0e 00 00 00       	mov    $0xe,%edi
  4012bf:	e8 fc fa ff ff       	callq  400dc0 <signal@plt>
  4012c4:	bf 02 00 00 00       	mov    $0x2,%edi
  4012c9:	e8 b2 fa ff ff       	callq  400d80 <alarm@plt>
  4012ce:	4c 8d 25 1d 22 00 00 	lea    0x221d(%rip),%r12        # 4034f2 <_IO_stdin_used+0x242>
  4012d5:	eb bd                	jmp    401294 <main+0x86>
  4012d7:	48 8b 3b             	mov    (%rbx),%rdi
  4012da:	e8 08 fd ff ff       	callq  400fe7 <usage>
  4012df:	48 8d 35 da 22 00 00 	lea    0x22da(%rip),%rsi        # 4035c0 <_IO_stdin_used+0x310>
  4012e6:	48 8b 3d db 41 20 00 	mov    0x2041db(%rip),%rdi        # 6054c8 <optarg@@GLIBC_2.2.5>
  4012ed:	e8 7e fb ff ff       	callq  400e70 <fopen@plt>
  4012f2:	48 89 05 17 42 20 00 	mov    %rax,0x204217(%rip)        # 605510 <infile>
  4012f9:	48 85 c0             	test   %rax,%rax
  4012fc:	75 42                	jne    401340 <main+0x132>
  4012fe:	48 8b 0d c3 41 20 00 	mov    0x2041c3(%rip),%rcx        # 6054c8 <optarg@@GLIBC_2.2.5>
  401305:	48 8d 15 f0 21 00 00 	lea    0x21f0(%rip),%rdx        # 4034fc <_IO_stdin_used+0x24c>
  40130c:	be 01 00 00 00       	mov    $0x1,%esi
  401311:	48 8b 3d c8 41 20 00 	mov    0x2041c8(%rip),%rdi        # 6054e0 <stderr@@GLIBC_2.2.5>
  401318:	e8 b3 fb ff ff       	callq  400ed0 <__fprintf_chk@plt>
  40131d:	b8 01 00 00 00       	mov    $0x1,%eax
  401322:	e9 29 01 00 00       	jmpq   401450 <main+0x242>
  401327:	ba 10 00 00 00       	mov    $0x10,%edx
  40132c:	be 00 00 00 00       	mov    $0x0,%esi
  401331:	48 8b 3d 90 41 20 00 	mov    0x204190(%rip),%rdi        # 6054c8 <optarg@@GLIBC_2.2.5>
  401338:	e8 53 fb ff ff       	callq  400e90 <strtoul@plt>
  40133d:	41 89 c6             	mov    %eax,%r14d
  401340:	4c 89 e2             	mov    %r12,%rdx
  401343:	48 89 de             	mov    %rbx,%rsi
  401346:	89 ef                	mov    %ebp,%edi
  401348:	e8 33 fb ff ff       	callq  400e80 <getopt@plt>
  40134d:	3c ff                	cmp    $0xff,%al
  40134f:	74 78                	je     4013c9 <main+0x1bb>
  401351:	0f be d0             	movsbl %al,%edx
  401354:	83 e8 61             	sub    $0x61,%eax
  401357:	3c 14                	cmp    $0x14,%al
  401359:	77 50                	ja     4013ab <main+0x19d>
  40135b:	0f b6 c0             	movzbl %al,%eax
  40135e:	48 8d 0d d7 21 00 00 	lea    0x21d7(%rip),%rcx        # 40353c <_IO_stdin_used+0x28c>
  401365:	48 63 04 81          	movslq (%rcx,%rax,4),%rax
  401369:	48 01 c8             	add    %rcx,%rax
  40136c:	ff e0                	jmpq   *%rax
  40136e:	ba 0a 00 00 00       	mov    $0xa,%edx
  401373:	be 00 00 00 00       	mov    $0x0,%esi
  401378:	48 8b 3d 49 41 20 00 	mov    0x204149(%rip),%rdi        # 6054c8 <optarg@@GLIBC_2.2.5>
  40137f:	e8 6c fa ff ff       	callq  400df0 <strtol@plt>
  401384:	41 89 c5             	mov    %eax,%r13d
  401387:	eb b7                	jmp    401340 <main+0x132>
  401389:	c7 05 15 41 20 00 00 	movl   $0x0,0x204115(%rip)        # 6054a8 <notify>
  401390:	00 00 00 
  401393:	eb ab                	jmp    401340 <main+0x132>
  401395:	48 89 e7             	mov    %rsp,%rdi
  401398:	ba 50 00 00 00       	mov    $0x50,%edx
  40139d:	48 8b 35 24 41 20 00 	mov    0x204124(%rip),%rsi        # 6054c8 <optarg@@GLIBC_2.2.5>
  4013a4:	e8 67 f9 ff ff       	callq  400d10 <strncpy@plt>
  4013a9:	eb 95                	jmp    401340 <main+0x132>
  4013ab:	48 8d 35 67 21 00 00 	lea    0x2167(%rip),%rsi        # 403519 <_IO_stdin_used+0x269>
  4013b2:	bf 01 00 00 00       	mov    $0x1,%edi
  4013b7:	b8 00 00 00 00       	mov    $0x0,%eax
  4013bc:	e8 9f fa ff ff       	callq  400e60 <__printf_chk@plt>
  4013c1:	48 8b 3b             	mov    (%rbx),%rdi
  4013c4:	e8 1e fc ff ff       	callq  400fe7 <usage>
  4013c9:	be 01 00 00 00       	mov    $0x1,%esi
  4013ce:	44 89 ef             	mov    %r13d,%edi
  4013d1:	e8 ad fc ff ff       	callq  401083 <initialize_target>
  4013d6:	83 3d 4b 41 20 00 00 	cmpl   $0x0,0x20414b(%rip)        # 605528 <is_checker>
  4013dd:	74 3f                	je     40141e <main+0x210>
  4013df:	44 39 35 3a 41 20 00 	cmp    %r14d,0x20413a(%rip)        # 605520 <authkey>
  4013e6:	75 13                	jne    4013fb <main+0x1ed>
  4013e8:	48 89 e7             	mov    %rsp,%rdi
  4013eb:	48 8b 35 6e 3d 20 00 	mov    0x203d6e(%rip),%rsi        # 605160 <user_id>
  4013f2:	e8 b9 f9 ff ff       	callq  400db0 <strcmp@plt>
  4013f7:	85 c0                	test   %eax,%eax
  4013f9:	74 23                	je     40141e <main+0x210>
  4013fb:	44 89 f2             	mov    %r14d,%edx
  4013fe:	48 8d 35 33 20 00 00 	lea    0x2033(%rip),%rsi        # 403438 <_IO_stdin_used+0x188>
  401405:	bf 01 00 00 00       	mov    $0x1,%edi
  40140a:	b8 00 00 00 00       	mov    $0x0,%eax
  40140f:	e8 4c fa ff ff       	callq  400e60 <__printf_chk@plt>
  401414:	b8 00 00 00 00       	mov    $0x0,%eax
  401419:	e8 a2 09 00 00       	callq  401dc0 <check_fail>
  40141e:	8b 15 00 41 20 00    	mov    0x204100(%rip),%edx        # 605524 <cookie>
  401424:	48 8d 35 01 21 00 00 	lea    0x2101(%rip),%rsi        # 40352c <_IO_stdin_used+0x27c>
  40142b:	bf 01 00 00 00       	mov    $0x1,%edi
  401430:	b8 00 00 00 00       	mov    $0x0,%eax
  401435:	e8 26 fa ff ff       	callq  400e60 <__printf_chk@plt>
  40143a:	be 01 00 00 00       	mov    $0x1,%esi
  40143f:	48 8b 3d 5a 40 20 00 	mov    0x20405a(%rip),%rdi        # 6054a0 <buf_offset>
  401446:	e8 b4 0e 00 00       	callq  4022ff <launch>
  40144b:	b8 00 00 00 00       	mov    $0x0,%eax
  401450:	48 8b 5c 24 58       	mov    0x58(%rsp),%rbx
  401455:	64 48 33 1c 25 28 00 	xor    %fs:0x28,%rbx
  40145c:	00 00 
  40145e:	75 0d                	jne    40146d <main+0x25f>
  401460:	48 83 c4 60          	add    $0x60,%rsp
  401464:	5b                   	pop    %rbx
  401465:	5d                   	pop    %rbp
  401466:	41 5c                	pop    %r12
  401468:	41 5d                	pop    %r13
  40146a:	41 5e                	pop    %r14
  40146c:	c3                   	retq   
  40146d:	e8 39 0e 00 00       	callq  4022ab <__stack_chk_fail>

0000000000401472 <scramble>:
  401472:	48 83 ec 38          	sub    $0x38,%rsp
  401476:	64 48 8b 04 25 28 00 	mov    %fs:0x28,%rax
  40147d:	00 00 
  40147f:	48 89 44 24 28       	mov    %rax,0x28(%rsp)
  401484:	31 c0                	xor    %eax,%eax
  401486:	eb 10                	jmp    401498 <scramble+0x26>
  401488:	69 d0 34 6f 00 00    	imul   $0x6f34,%eax,%edx
  40148e:	01 fa                	add    %edi,%edx
  401490:	89 c1                	mov    %eax,%ecx
  401492:	89 14 8c             	mov    %edx,(%rsp,%rcx,4)
  401495:	83 c0 01             	add    $0x1,%eax
  401498:	83 f8 09             	cmp    $0x9,%eax
  40149b:	76 eb                	jbe    401488 <scramble+0x16>
  40149d:	8b 44 24 08          	mov    0x8(%rsp),%eax
  4014a1:	69 c0 ee 09 00 00    	imul   $0x9ee,%eax,%eax
  4014a7:	89 44 24 08          	mov    %eax,0x8(%rsp)
  4014ab:	8b 44 24 0c          	mov    0xc(%rsp),%eax
  4014af:	69 c0 b2 90 00 00    	imul   $0x90b2,%eax,%eax
  4014b5:	89 44 24 0c          	mov    %eax,0xc(%rsp)
  4014b9:	8b 44 24 24          	mov    0x24(%rsp),%eax
  4014bd:	69 c0 88 15 00 00    	imul   $0x1588,%eax,%eax
  4014c3:	89 44 24 24          	mov    %eax,0x24(%rsp)
  4014c7:	8b 44 24 0c          	mov    0xc(%rsp),%eax
  4014cb:	69 c0 e5 e4 00 00    	imul   $0xe4e5,%eax,%eax
  4014d1:	89 44 24 0c          	mov    %eax,0xc(%rsp)
  4014d5:	8b 44 24 10          	mov    0x10(%rsp),%eax
  4014d9:	69 c0 77 4b 00 00    	imul   $0x4b77,%eax,%eax
  4014df:	89 44 24 10          	mov    %eax,0x10(%rsp)
  4014e3:	8b 44 24 1c          	mov    0x1c(%rsp),%eax
  4014e7:	69 c0 5d 94 00 00    	imul   $0x945d,%eax,%eax
  4014ed:	89 44 24 1c          	mov    %eax,0x1c(%rsp)
  4014f1:	8b 44 24 04          	mov    0x4(%rsp),%eax
  4014f5:	69 c0 83 54 00 00    	imul   $0x5483,%eax,%eax
  4014fb:	89 44 24 04          	mov    %eax,0x4(%rsp)
  4014ff:	8b 44 24 20          	mov    0x20(%rsp),%eax
  401503:	69 c0 68 1d 00 00    	imul   $0x1d68,%eax,%eax
  401509:	89 44 24 20          	mov    %eax,0x20(%rsp)
  40150d:	8b 44 24 14          	mov    0x14(%rsp),%eax
  401511:	69 c0 b8 c2 00 00    	imul   $0xc2b8,%eax,%eax
  401517:	89 44 24 14          	mov    %eax,0x14(%rsp)
  40151b:	8b 44 24 0c          	mov    0xc(%rsp),%eax
  40151f:	69 c0 68 b1 00 00    	imul   $0xb168,%eax,%eax
  401525:	89 44 24 0c          	mov    %eax,0xc(%rsp)
  401529:	8b 44 24 1c          	mov    0x1c(%rsp),%eax
  40152d:	69 c0 1f ae 00 00    	imul   $0xae1f,%eax,%eax
  401533:	89 44 24 1c          	mov    %eax,0x1c(%rsp)
  401537:	8b 44 24 1c          	mov    0x1c(%rsp),%eax
  40153b:	69 c0 eb eb 00 00    	imul   $0xebeb,%eax,%eax
  401541:	89 44 24 1c          	mov    %eax,0x1c(%rsp)
  401545:	8b 44 24 0c          	mov    0xc(%rsp),%eax
  401549:	69 c0 6b 57 00 00    	imul   $0x576b,%eax,%eax
  40154f:	89 44 24 0c          	mov    %eax,0xc(%rsp)
  401553:	8b 44 24 04          	mov    0x4(%rsp),%eax
  401557:	69 c0 0b 86 00 00    	imul   $0x860b,%eax,%eax
  40155d:	89 44 24 04          	mov    %eax,0x4(%rsp)
  401561:	8b 04 24             	mov    (%rsp),%eax
  401564:	69 c0 cf 27 00 00    	imul   $0x27cf,%eax,%eax
  40156a:	89 04 24             	mov    %eax,(%rsp)
  40156d:	8b 04 24             	mov    (%rsp),%eax
  401570:	69 c0 62 b6 00 00    	imul   $0xb662,%eax,%eax
  401576:	89 04 24             	mov    %eax,(%rsp)
  401579:	8b 44 24 20          	mov    0x20(%rsp),%eax
  40157d:	69 c0 3c 81 00 00    	imul   $0x813c,%eax,%eax
  401583:	89 44 24 20          	mov    %eax,0x20(%rsp)
  401587:	8b 44 24 18          	mov    0x18(%rsp),%eax
  40158b:	69 c0 31 e3 00 00    	imul   $0xe331,%eax,%eax
  401591:	89 44 24 18          	mov    %eax,0x18(%rsp)
  401595:	8b 44 24 08          	mov    0x8(%rsp),%eax
  401599:	69 c0 ee 7f 00 00    	imul   $0x7fee,%eax,%eax
  40159f:	89 44 24 08          	mov    %eax,0x8(%rsp)
  4015a3:	8b 44 24 24          	mov    0x24(%rsp),%eax
  4015a7:	69 c0 5b 06 00 00    	imul   $0x65b,%eax,%eax
  4015ad:	89 44 24 24          	mov    %eax,0x24(%rsp)
  4015b1:	8b 04 24             	mov    (%rsp),%eax
  4015b4:	69 c0 41 5d 00 00    	imul   $0x5d41,%eax,%eax
  4015ba:	89 04 24             	mov    %eax,(%rsp)
  4015bd:	8b 44 24 20          	mov    0x20(%rsp),%eax
  4015c1:	69 c0 8e 79 00 00    	imul   $0x798e,%eax,%eax
  4015c7:	89 44 24 20          	mov    %eax,0x20(%rsp)
  4015cb:	8b 04 24             	mov    (%rsp),%eax
  4015ce:	69 c0 67 3d 00 00    	imul   $0x3d67,%eax,%eax
  4015d4:	89 04 24             	mov    %eax,(%rsp)
  4015d7:	8b 44 24 14          	mov    0x14(%rsp),%eax
  4015db:	69 c0 f8 98 00 00    	imul   $0x98f8,%eax,%eax
  4015e1:	89 44 24 14          	mov    %eax,0x14(%rsp)
  4015e5:	8b 44 24 1c          	mov    0x1c(%rsp),%eax
  4015e9:	69 c0 30 ac 00 00    	imul   $0xac30,%eax,%eax
  4015ef:	89 44 24 1c          	mov    %eax,0x1c(%rsp)
  4015f3:	8b 44 24 0c          	mov    0xc(%rsp),%eax
  4015f7:	69 c0 eb ec 00 00    	imul   $0xeceb,%eax,%eax
  4015fd:	89 44 24 0c          	mov    %eax,0xc(%rsp)
  401601:	8b 44 24 10          	mov    0x10(%rsp),%eax
  401605:	69 c0 04 83 00 00    	imul   $0x8304,%eax,%eax
  40160b:	89 44 24 10          	mov    %eax,0x10(%rsp)
  40160f:	8b 44 24 08          	mov    0x8(%rsp),%eax
  401613:	69 c0 70 a7 00 00    	imul   $0xa770,%eax,%eax
  401619:	89 44 24 08          	mov    %eax,0x8(%rsp)
  40161d:	8b 44 24 08          	mov    0x8(%rsp),%eax
  401621:	69 c0 85 39 00 00    	imul   $0x3985,%eax,%eax
  401627:	89 44 24 08          	mov    %eax,0x8(%rsp)
  40162b:	8b 44 24 1c          	mov    0x1c(%rsp),%eax
  40162f:	69 c0 9d 21 00 00    	imul   $0x219d,%eax,%eax
  401635:	89 44 24 1c          	mov    %eax,0x1c(%rsp)
  401639:	8b 44 24 04          	mov    0x4(%rsp),%eax
  40163d:	69 c0 72 fe 00 00    	imul   $0xfe72,%eax,%eax
  401643:	89 44 24 04          	mov    %eax,0x4(%rsp)
  401647:	8b 44 24 10          	mov    0x10(%rsp),%eax
  40164b:	69 c0 13 93 00 00    	imul   $0x9313,%eax,%eax
  401651:	89 44 24 10          	mov    %eax,0x10(%rsp)
  401655:	8b 44 24 18          	mov    0x18(%rsp),%eax
  401659:	69 c0 14 1f 00 00    	imul   $0x1f14,%eax,%eax
  40165f:	89 44 24 18          	mov    %eax,0x18(%rsp)
  401663:	8b 04 24             	mov    (%rsp),%eax
  401666:	69 c0 72 16 00 00    	imul   $0x1672,%eax,%eax
  40166c:	89 04 24             	mov    %eax,(%rsp)
  40166f:	8b 44 24 14          	mov    0x14(%rsp),%eax
  401673:	69 c0 5b 3e 00 00    	imul   $0x3e5b,%eax,%eax
  401679:	89 44 24 14          	mov    %eax,0x14(%rsp)
  40167d:	8b 04 24             	mov    (%rsp),%eax
  401680:	69 c0 67 6a 00 00    	imul   $0x6a67,%eax,%eax
  401686:	89 04 24             	mov    %eax,(%rsp)
  401689:	8b 44 24 20          	mov    0x20(%rsp),%eax
  40168d:	69 c0 86 b7 00 00    	imul   $0xb786,%eax,%eax
  401693:	89 44 24 20          	mov    %eax,0x20(%rsp)
  401697:	8b 44 24 24          	mov    0x24(%rsp),%eax
  40169b:	69 c0 60 4d 00 00    	imul   $0x4d60,%eax,%eax
  4016a1:	89 44 24 24          	mov    %eax,0x24(%rsp)
  4016a5:	8b 44 24 18          	mov    0x18(%rsp),%eax
  4016a9:	69 c0 ec 7a 00 00    	imul   $0x7aec,%eax,%eax
  4016af:	89 44 24 18          	mov    %eax,0x18(%rsp)
  4016b3:	8b 44 24 18          	mov    0x18(%rsp),%eax
  4016b7:	69 c0 0d f5 00 00    	imul   $0xf50d,%eax,%eax
  4016bd:	89 44 24 18          	mov    %eax,0x18(%rsp)
  4016c1:	8b 44 24 10          	mov    0x10(%rsp),%eax
  4016c5:	69 c0 b9 30 00 00    	imul   $0x30b9,%eax,%eax
  4016cb:	89 44 24 10          	mov    %eax,0x10(%rsp)
  4016cf:	8b 04 24             	mov    (%rsp),%eax
  4016d2:	69 c0 6b 81 00 00    	imul   $0x816b,%eax,%eax
  4016d8:	89 04 24             	mov    %eax,(%rsp)
  4016db:	8b 44 24 08          	mov    0x8(%rsp),%eax
  4016df:	69 c0 ce ba 00 00    	imul   $0xbace,%eax,%eax
  4016e5:	89 44 24 08          	mov    %eax,0x8(%rsp)
  4016e9:	8b 44 24 04          	mov    0x4(%rsp),%eax
  4016ed:	69 c0 2e 8e 00 00    	imul   $0x8e2e,%eax,%eax
  4016f3:	89 44 24 04          	mov    %eax,0x4(%rsp)
  4016f7:	8b 44 24 1c          	mov    0x1c(%rsp),%eax
  4016fb:	69 c0 58 56 00 00    	imul   $0x5658,%eax,%eax
  401701:	89 44 24 1c          	mov    %eax,0x1c(%rsp)
  401705:	8b 44 24 18          	mov    0x18(%rsp),%eax
  401709:	69 c0 a8 55 00 00    	imul   $0x55a8,%eax,%eax
  40170f:	89 44 24 18          	mov    %eax,0x18(%rsp)
  401713:	8b 44 24 24          	mov    0x24(%rsp),%eax
  401717:	69 c0 cb 87 00 00    	imul   $0x87cb,%eax,%eax
  40171d:	89 44 24 24          	mov    %eax,0x24(%rsp)
  401721:	8b 44 24 0c          	mov    0xc(%rsp),%eax
  401725:	69 c0 78 d4 00 00    	imul   $0xd478,%eax,%eax
  40172b:	89 44 24 0c          	mov    %eax,0xc(%rsp)
  40172f:	8b 44 24 10          	mov    0x10(%rsp),%eax
  401733:	69 c0 00 5f 00 00    	imul   $0x5f00,%eax,%eax
  401739:	89 44 24 10          	mov    %eax,0x10(%rsp)
  40173d:	8b 44 24 24          	mov    0x24(%rsp),%eax
  401741:	69 c0 e1 45 00 00    	imul   $0x45e1,%eax,%eax
  401747:	89 44 24 24          	mov    %eax,0x24(%rsp)
  40174b:	8b 44 24 10          	mov    0x10(%rsp),%eax
  40174f:	69 c0 b7 07 00 00    	imul   $0x7b7,%eax,%eax
  401755:	89 44 24 10          	mov    %eax,0x10(%rsp)
  401759:	8b 44 24 1c          	mov    0x1c(%rsp),%eax
  40175d:	69 c0 f7 38 00 00    	imul   $0x38f7,%eax,%eax
  401763:	89 44 24 1c          	mov    %eax,0x1c(%rsp)
  401767:	8b 44 24 24          	mov    0x24(%rsp),%eax
  40176b:	69 c0 3e 94 00 00    	imul   $0x943e,%eax,%eax
  401771:	89 44 24 24          	mov    %eax,0x24(%rsp)
  401775:	8b 44 24 14          	mov    0x14(%rsp),%eax
  401779:	69 c0 2b b4 00 00    	imul   $0xb42b,%eax,%eax
  40177f:	89 44 24 14          	mov    %eax,0x14(%rsp)
  401783:	8b 44 24 18          	mov    0x18(%rsp),%eax
  401787:	69 c0 af 6c 00 00    	imul   $0x6caf,%eax,%eax
  40178d:	89 44 24 18          	mov    %eax,0x18(%rsp)
  401791:	8b 44 24 0c          	mov    0xc(%rsp),%eax
  401795:	69 c0 47 36 00 00    	imul   $0x3647,%eax,%eax
  40179b:	89 44 24 0c          	mov    %eax,0xc(%rsp)
  40179f:	8b 44 24 0c          	mov    0xc(%rsp),%eax
  4017a3:	69 c0 30 8b 00 00    	imul   $0x8b30,%eax,%eax
  4017a9:	89 44 24 0c          	mov    %eax,0xc(%rsp)
  4017ad:	8b 44 24 08          	mov    0x8(%rsp),%eax
  4017b1:	69 c0 27 51 00 00    	imul   $0x5127,%eax,%eax
  4017b7:	89 44 24 08          	mov    %eax,0x8(%rsp)
  4017bb:	8b 44 24 1c          	mov    0x1c(%rsp),%eax
  4017bf:	69 c0 8f e0 00 00    	imul   $0xe08f,%eax,%eax
  4017c5:	89 44 24 1c          	mov    %eax,0x1c(%rsp)
  4017c9:	8b 44 24 04          	mov    0x4(%rsp),%eax
  4017cd:	69 c0 51 3a 00 00    	imul   $0x3a51,%eax,%eax
  4017d3:	89 44 24 04          	mov    %eax,0x4(%rsp)
  4017d7:	8b 44 24 10          	mov    0x10(%rsp),%eax
  4017db:	69 c0 20 8f 00 00    	imul   $0x8f20,%eax,%eax
  4017e1:	89 44 24 10          	mov    %eax,0x10(%rsp)
  4017e5:	8b 44 24 24          	mov    0x24(%rsp),%eax
  4017e9:	69 c0 b1 8b 00 00    	imul   $0x8bb1,%eax,%eax
  4017ef:	89 44 24 24          	mov    %eax,0x24(%rsp)
  4017f3:	8b 44 24 04          	mov    0x4(%rsp),%eax
  4017f7:	69 c0 b5 78 00 00    	imul   $0x78b5,%eax,%eax
  4017fd:	89 44 24 04          	mov    %eax,0x4(%rsp)
  401801:	8b 44 24 04          	mov    0x4(%rsp),%eax
  401805:	69 c0 ca bd 00 00    	imul   $0xbdca,%eax,%eax
  40180b:	89 44 24 04          	mov    %eax,0x4(%rsp)
  40180f:	8b 44 24 1c          	mov    0x1c(%rsp),%eax
  401813:	69 c0 13 4b 00 00    	imul   $0x4b13,%eax,%eax
  401819:	89 44 24 1c          	mov    %eax,0x1c(%rsp)
  40181d:	8b 44 24 18          	mov    0x18(%rsp),%eax
  401821:	69 c0 10 75 00 00    	imul   $0x7510,%eax,%eax
  401827:	89 44 24 18          	mov    %eax,0x18(%rsp)
  40182b:	8b 44 24 04          	mov    0x4(%rsp),%eax
  40182f:	69 c0 f4 b3 00 00    	imul   $0xb3f4,%eax,%eax
  401835:	89 44 24 04          	mov    %eax,0x4(%rsp)
  401839:	8b 44 24 20          	mov    0x20(%rsp),%eax
  40183d:	69 c0 08 12 00 00    	imul   $0x1208,%eax,%eax
  401843:	89 44 24 20          	mov    %eax,0x20(%rsp)
  401847:	8b 44 24 1c          	mov    0x1c(%rsp),%eax
  40184b:	69 c0 5e 34 00 00    	imul   $0x345e,%eax,%eax
  401851:	89 44 24 1c          	mov    %eax,0x1c(%rsp)
  401855:	8b 04 24             	mov    (%rsp),%eax
  401858:	69 c0 5d 57 00 00    	imul   $0x575d,%eax,%eax
  40185e:	89 04 24             	mov    %eax,(%rsp)
  401861:	8b 44 24 14          	mov    0x14(%rsp),%eax
  401865:	69 c0 6b 6f 00 00    	imul   $0x6f6b,%eax,%eax
  40186b:	89 44 24 14          	mov    %eax,0x14(%rsp)
  40186f:	8b 44 24 14          	mov    0x14(%rsp),%eax
  401873:	69 c0 77 3e 00 00    	imul   $0x3e77,%eax,%eax
  401879:	89 44 24 14          	mov    %eax,0x14(%rsp)
  40187d:	8b 04 24             	mov    (%rsp),%eax
  401880:	69 c0 58 45 00 00    	imul   $0x4558,%eax,%eax
  401886:	89 04 24             	mov    %eax,(%rsp)
  401889:	8b 44 24 14          	mov    0x14(%rsp),%eax
  40188d:	69 c0 99 40 00 00    	imul   $0x4099,%eax,%eax
  401893:	89 44 24 14          	mov    %eax,0x14(%rsp)
  401897:	8b 44 24 08          	mov    0x8(%rsp),%eax
  40189b:	69 c0 f3 6e 00 00    	imul   $0x6ef3,%eax,%eax
  4018a1:	89 44 24 08          	mov    %eax,0x8(%rsp)
  4018a5:	8b 44 24 1c          	mov    0x1c(%rsp),%eax
  4018a9:	69 c0 ce 5c 00 00    	imul   $0x5cce,%eax,%eax
  4018af:	89 44 24 1c          	mov    %eax,0x1c(%rsp)
  4018b3:	8b 44 24 14          	mov    0x14(%rsp),%eax
  4018b7:	69 c0 e4 0a 00 00    	imul   $0xae4,%eax,%eax
  4018bd:	89 44 24 14          	mov    %eax,0x14(%rsp)
  4018c1:	8b 44 24 10          	mov    0x10(%rsp),%eax
  4018c5:	69 c0 ff 14 00 00    	imul   $0x14ff,%eax,%eax
  4018cb:	89 44 24 10          	mov    %eax,0x10(%rsp)
  4018cf:	8b 44 24 04          	mov    0x4(%rsp),%eax
  4018d3:	69 c0 a8 48 00 00    	imul   $0x48a8,%eax,%eax
  4018d9:	89 44 24 04          	mov    %eax,0x4(%rsp)
  4018dd:	8b 44 24 0c          	mov    0xc(%rsp),%eax
  4018e1:	69 c0 4f 5b 00 00    	imul   $0x5b4f,%eax,%eax
  4018e7:	89 44 24 0c          	mov    %eax,0xc(%rsp)
  4018eb:	8b 44 24 20          	mov    0x20(%rsp),%eax
  4018ef:	69 c0 75 d6 00 00    	imul   $0xd675,%eax,%eax
  4018f5:	89 44 24 20          	mov    %eax,0x20(%rsp)
  4018f9:	8b 44 24 14          	mov    0x14(%rsp),%eax
  4018fd:	69 c0 85 e6 00 00    	imul   $0xe685,%eax,%eax
  401903:	89 44 24 14          	mov    %eax,0x14(%rsp)
  401907:	8b 44 24 1c          	mov    0x1c(%rsp),%eax
  40190b:	69 c0 67 7e 00 00    	imul   $0x7e67,%eax,%eax
  401911:	89 44 24 1c          	mov    %eax,0x1c(%rsp)
  401915:	8b 44 24 08          	mov    0x8(%rsp),%eax
  401919:	69 c0 9b d2 00 00    	imul   $0xd29b,%eax,%eax
  40191f:	89 44 24 08          	mov    %eax,0x8(%rsp)
  401923:	8b 44 24 24          	mov    0x24(%rsp),%eax
  401927:	69 c0 c0 be 00 00    	imul   $0xbec0,%eax,%eax
  40192d:	89 44 24 24          	mov    %eax,0x24(%rsp)
  401931:	8b 44 24 24          	mov    0x24(%rsp),%eax
  401935:	69 c0 d4 53 00 00    	imul   $0x53d4,%eax,%eax
  40193b:	89 44 24 24          	mov    %eax,0x24(%rsp)
  40193f:	8b 44 24 24          	mov    0x24(%rsp),%eax
  401943:	69 c0 9e b7 00 00    	imul   $0xb79e,%eax,%eax
  401949:	89 44 24 24          	mov    %eax,0x24(%rsp)
  40194d:	8b 44 24 18          	mov    0x18(%rsp),%eax
  401951:	69 c0 c6 28 00 00    	imul   $0x28c6,%eax,%eax
  401957:	89 44 24 18          	mov    %eax,0x18(%rsp)
  40195b:	8b 44 24 04          	mov    0x4(%rsp),%eax
  40195f:	69 c0 e9 21 00 00    	imul   $0x21e9,%eax,%eax
  401965:	89 44 24 04          	mov    %eax,0x4(%rsp)
  401969:	ba 00 00 00 00       	mov    $0x0,%edx
  40196e:	b8 00 00 00 00       	mov    $0x0,%eax
  401973:	eb 0a                	jmp    40197f <scramble+0x50d>
  401975:	89 d1                	mov    %edx,%ecx
  401977:	8b 0c 8c             	mov    (%rsp,%rcx,4),%ecx
  40197a:	01 c8                	add    %ecx,%eax
  40197c:	83 c2 01             	add    $0x1,%edx
  40197f:	83 fa 09             	cmp    $0x9,%edx
  401982:	76 f1                	jbe    401975 <scramble+0x503>
  401984:	48 8b 74 24 28       	mov    0x28(%rsp),%rsi
  401989:	64 48 33 34 25 28 00 	xor    %fs:0x28,%rsi
  401990:	00 00 
  401992:	75 05                	jne    401999 <scramble+0x527>
  401994:	48 83 c4 38          	add    $0x38,%rsp
  401998:	c3                   	retq   
  401999:	e8 0d 09 00 00       	callq  4022ab <__stack_chk_fail>

000000000040199e <getbuf>:
  40199e:	48 83 ec 28          	sub    $0x28,%rsp
  4019a2:	48 89 e7             	mov    %rsp,%rdi
  4019a5:	e8 4e 04 00 00       	callq  401df8 <Gets>
  4019aa:	b8 01 00 00 00       	mov    $0x1,%eax
  4019af:	48 83 c4 28          	add    $0x28,%rsp
  4019b3:	c3                   	retq   

00000000004019b4 <touch1>:
  4019b4:	48 83 ec 08          	sub    $0x8,%rsp
  4019b8:	c7 05 5a 3b 20 00 01 	movl   $0x1,0x203b5a(%rip)        # 60551c <vlevel>
  4019bf:	00 00 00 
  4019c2:	48 8d 3d f9 1b 00 00 	lea    0x1bf9(%rip),%rdi        # 4035c2 <_IO_stdin_used+0x312>
  4019c9:	e8 72 f3 ff ff       	callq  400d40 <puts@plt>
  4019ce:	bf 01 00 00 00       	mov    $0x1,%edi
  4019d3:	e8 88 06 00 00       	callq  402060 <validate>
  4019d8:	bf 00 00 00 00       	mov    $0x0,%edi
  4019dd:	e8 ce f4 ff ff       	callq  400eb0 <exit@plt>

00000000004019e2 <touch2>:
  4019e2:	48 83 ec 08          	sub    $0x8,%rsp
  4019e6:	89 fa                	mov    %edi,%edx
  4019e8:	c7 05 2a 3b 20 00 02 	movl   $0x2,0x203b2a(%rip)        # 60551c <vlevel>
  4019ef:	00 00 00 
  4019f2:	39 3d 2c 3b 20 00    	cmp    %edi,0x203b2c(%rip)        # 605524 <cookie>
  4019f8:	74 2a                	je     401a24 <touch2+0x42>
  4019fa:	48 8d 35 0f 1c 00 00 	lea    0x1c0f(%rip),%rsi        # 403610 <_IO_stdin_used+0x360>
  401a01:	bf 01 00 00 00       	mov    $0x1,%edi
  401a06:	b8 00 00 00 00       	mov    $0x0,%eax
  401a0b:	e8 50 f4 ff ff       	callq  400e60 <__printf_chk@plt>
  401a10:	bf 02 00 00 00       	mov    $0x2,%edi
  401a15:	e8 16 07 00 00       	callq  402130 <fail>
  401a1a:	bf 00 00 00 00       	mov    $0x0,%edi
  401a1f:	e8 8c f4 ff ff       	callq  400eb0 <exit@plt>
  401a24:	48 8d 35 bd 1b 00 00 	lea    0x1bbd(%rip),%rsi        # 4035e8 <_IO_stdin_used+0x338>
  401a2b:	bf 01 00 00 00       	mov    $0x1,%edi
  401a30:	b8 00 00 00 00       	mov    $0x0,%eax
  401a35:	e8 26 f4 ff ff       	callq  400e60 <__printf_chk@plt>
  401a3a:	bf 02 00 00 00       	mov    $0x2,%edi
  401a3f:	e8 1c 06 00 00       	callq  402060 <validate>
  401a44:	eb d4                	jmp    401a1a <touch2+0x38>

0000000000401a46 <hexmatch>:
  401a46:	41 54                	push   %r12
  401a48:	55                   	push   %rbp
  401a49:	53                   	push   %rbx
  401a4a:	48 83 c4 80          	add    $0xffffffffffffff80,%rsp
  401a4e:	89 fd                	mov    %edi,%ebp
  401a50:	48 89 f3             	mov    %rsi,%rbx
  401a53:	64 48 8b 04 25 28 00 	mov    %fs:0x28,%rax
  401a5a:	00 00 
  401a5c:	48 89 44 24 78       	mov    %rax,0x78(%rsp)
  401a61:	31 c0                	xor    %eax,%eax
  401a63:	e8 b8 f3 ff ff       	callq  400e20 <random@plt>
  401a68:	48 89 c1             	mov    %rax,%rcx
  401a6b:	48 ba 0b d7 a3 70 3d 	movabs $0xa3d70a3d70a3d70b,%rdx
  401a72:	0a d7 a3 
  401a75:	48 f7 ea             	imul   %rdx
  401a78:	48 01 ca             	add    %rcx,%rdx
  401a7b:	48 c1 fa 06          	sar    $0x6,%rdx
  401a7f:	48 89 c8             	mov    %rcx,%rax
  401a82:	48 c1 f8 3f          	sar    $0x3f,%rax
  401a86:	48 29 c2             	sub    %rax,%rdx
  401a89:	48 8d 04 92          	lea    (%rdx,%rdx,4),%rax
  401a8d:	48 8d 14 80          	lea    (%rax,%rax,4),%rdx
  401a91:	48 8d 04 95 00 00 00 	lea    0x0(,%rdx,4),%rax
  401a98:	00 
  401a99:	48 29 c1             	sub    %rax,%rcx
  401a9c:	4c 8d 24 0c          	lea    (%rsp,%rcx,1),%r12
  401aa0:	41 89 e8             	mov    %ebp,%r8d
  401aa3:	48 8d 0d 35 1b 00 00 	lea    0x1b35(%rip),%rcx        # 4035df <_IO_stdin_used+0x32f>
  401aaa:	48 c7 c2 ff ff ff ff 	mov    $0xffffffffffffffff,%rdx
  401ab1:	be 01 00 00 00       	mov    $0x1,%esi
  401ab6:	4c 89 e7             	mov    %r12,%rdi
  401ab9:	b8 00 00 00 00       	mov    $0x0,%eax
  401abe:	e8 1d f4 ff ff       	callq  400ee0 <__sprintf_chk@plt>
  401ac3:	ba 09 00 00 00       	mov    $0x9,%edx
  401ac8:	4c 89 e6             	mov    %r12,%rsi
  401acb:	48 89 df             	mov    %rbx,%rdi
  401ace:	e8 4d f2 ff ff       	callq  400d20 <strncmp@plt>
  401ad3:	85 c0                	test   %eax,%eax
  401ad5:	0f 94 c0             	sete   %al
  401ad8:	48 8b 5c 24 78       	mov    0x78(%rsp),%rbx
  401add:	64 48 33 1c 25 28 00 	xor    %fs:0x28,%rbx
  401ae4:	00 00 
  401ae6:	75 0c                	jne    401af4 <hexmatch+0xae>
  401ae8:	0f b6 c0             	movzbl %al,%eax
  401aeb:	48 83 ec 80          	sub    $0xffffffffffffff80,%rsp
  401aef:	5b                   	pop    %rbx
  401af0:	5d                   	pop    %rbp
  401af1:	41 5c                	pop    %r12
  401af3:	c3                   	retq   
  401af4:	e8 b2 07 00 00       	callq  4022ab <__stack_chk_fail>

0000000000401af9 <touch3>:
  401af9:	53                   	push   %rbx
  401afa:	48 89 fb             	mov    %rdi,%rbx
  401afd:	c7 05 15 3a 20 00 03 	movl   $0x3,0x203a15(%rip)        # 60551c <vlevel>
  401b04:	00 00 00 
  401b07:	48 89 fe             	mov    %rdi,%rsi
  401b0a:	8b 3d 14 3a 20 00    	mov    0x203a14(%rip),%edi        # 605524 <cookie>
  401b10:	e8 31 ff ff ff       	callq  401a46 <hexmatch>
  401b15:	85 c0                	test   %eax,%eax
  401b17:	74 2d                	je     401b46 <touch3+0x4d>
  401b19:	48 89 da             	mov    %rbx,%rdx
  401b1c:	48 8d 35 15 1b 00 00 	lea    0x1b15(%rip),%rsi        # 403638 <_IO_stdin_used+0x388>
  401b23:	bf 01 00 00 00       	mov    $0x1,%edi
  401b28:	b8 00 00 00 00       	mov    $0x0,%eax
  401b2d:	e8 2e f3 ff ff       	callq  400e60 <__printf_chk@plt>
  401b32:	bf 03 00 00 00       	mov    $0x3,%edi
  401b37:	e8 24 05 00 00       	callq  402060 <validate>
  401b3c:	bf 00 00 00 00       	mov    $0x0,%edi
  401b41:	e8 6a f3 ff ff       	callq  400eb0 <exit@plt>
  401b46:	48 89 da             	mov    %rbx,%rdx
  401b49:	48 8d 35 10 1b 00 00 	lea    0x1b10(%rip),%rsi        # 403660 <_IO_stdin_used+0x3b0>
  401b50:	bf 01 00 00 00       	mov    $0x1,%edi
  401b55:	b8 00 00 00 00       	mov    $0x0,%eax
  401b5a:	e8 01 f3 ff ff       	callq  400e60 <__printf_chk@plt>
  401b5f:	bf 03 00 00 00       	mov    $0x3,%edi
  401b64:	e8 c7 05 00 00       	callq  402130 <fail>
  401b69:	eb d1                	jmp    401b3c <touch3+0x43>

0000000000401b6b <test>:
  401b6b:	48 83 ec 08          	sub    $0x8,%rsp
  401b6f:	b8 00 00 00 00       	mov    $0x0,%eax
  401b74:	e8 25 fe ff ff       	callq  40199e <getbuf>
  401b79:	89 c2                	mov    %eax,%edx
  401b7b:	48 8d 35 06 1b 00 00 	lea    0x1b06(%rip),%rsi        # 403688 <_IO_stdin_used+0x3d8>
  401b82:	bf 01 00 00 00       	mov    $0x1,%edi
  401b87:	b8 00 00 00 00       	mov    $0x0,%eax
  401b8c:	e8 cf f2 ff ff       	callq  400e60 <__printf_chk@plt>
  401b91:	48 83 c4 08          	add    $0x8,%rsp
  401b95:	c3                   	retq   

0000000000401b96 <test2>:
  401b96:	48 83 ec 08          	sub    $0x8,%rsp
  401b9a:	b8 00 00 00 00       	mov    $0x0,%eax
  401b9f:	e8 1d 00 00 00       	callq  401bc1 <getbuf_withcanary>
  401ba4:	89 c2                	mov    %eax,%edx
  401ba6:	48 8d 35 03 1b 00 00 	lea    0x1b03(%rip),%rsi        # 4036b0 <_IO_stdin_used+0x400>
  401bad:	bf 01 00 00 00       	mov    $0x1,%edi
  401bb2:	b8 00 00 00 00       	mov    $0x0,%eax
  401bb7:	e8 a4 f2 ff ff       	callq  400e60 <__printf_chk@plt>
  401bbc:	48 83 c4 08          	add    $0x8,%rsp
  401bc0:	c3                   	retq   

0000000000401bc1 <getbuf_withcanary>:
  401bc1:	55                   	push   %rbp
  401bc2:	48 89 e5             	mov    %rsp,%rbp
  401bc5:	48 81 ec 20 01 00 00 	sub    $0x120,%rsp
  401bcc:	64 48 8b 04 25 28 00 	mov    %fs:0x28,%rax
  401bd3:	00 00 
  401bd5:	48 89 45 f8          	mov    %rax,-0x8(%rbp)
  401bd9:	31 c0                	xor    %eax,%eax
  401bdb:	c7 45 e4 00 00 00 00 	movl   $0x0,-0x1c(%rbp)
  401be2:	48 8d 85 60 ff ff ff 	lea    -0xa0(%rbp),%rax
  401be9:	48 89 c7             	mov    %rax,%rdi
  401bec:	e8 07 02 00 00       	callq  401df8 <Gets>
  401bf1:	8b 45 e4             	mov    -0x1c(%rbp),%eax
  401bf4:	48 98                	cltq   
  401bf6:	48 8d 95 e0 fe ff ff 	lea    -0x120(%rbp),%rdx
  401bfd:	48 8d 0c 02          	lea    (%rdx,%rax,1),%rcx
  401c01:	48 8d 85 60 ff ff ff 	lea    -0xa0(%rbp),%rax
  401c08:	ba 80 00 00 00       	mov    $0x80,%edx
  401c0d:	48 89 c6             	mov    %rax,%rsi
  401c10:	48 89 cf             	mov    %rcx,%rdi
  401c13:	e8 e8 f1 ff ff       	callq  400e00 <memcpy@plt>
  401c18:	b8 01 00 00 00       	mov    $0x1,%eax
  401c1d:	48 8b 75 f8          	mov    -0x8(%rbp),%rsi
  401c21:	64 48 33 34 25 28 00 	xor    %fs:0x28,%rsi
  401c28:	00 00 
  401c2a:	74 05                	je     401c31 <getbuf_withcanary+0x70>
  401c2c:	e8 7a 06 00 00       	callq  4022ab <__stack_chk_fail>
  401c31:	c9                   	leaveq 
  401c32:	c3                   	retq   

0000000000401c33 <start_farm>:
  401c33:	b8 01 00 00 00       	mov    $0x1,%eax
  401c38:	c3                   	retq   

0000000000401c39 <addval_320>:
  401c39:	8d 87 b5 48 89 c7    	lea    -0x3876b74b(%rdi),%eax
  401c3f:	c3                   	retq   

0000000000401c40 <addval_371>:
  401c40:	8d 87 48 89 c7 c1    	lea    -0x3e3876b8(%rdi),%eax
  401c46:	c3                   	retq   

0000000000401c47 <setval_211>:
  401c47:	c7 07 48 89 c7 c3    	movl   $0xc3c78948,(%rdi)
  401c4d:	c3                   	retq   

0000000000401c4e <addval_396>:
  401c4e:	8d 87 48 89 c7 94    	lea    -0x6b3876b8(%rdi),%eax
  401c54:	c3                   	retq   

0000000000401c55 <addval_282>:
  401c55:	8d 87 7c f2 5a 18    	lea    0x185af27c(%rdi),%eax
  401c5b:	c3                   	retq   

0000000000401c5c <getval_113>:
  401c5c:	b8 e0 58 91 90       	mov    $0x909158e0,%eax
  401c61:	c3                   	retq   

0000000000401c62 <addval_257>:
  401c62:	8d 87 7b 32 58 90    	lea    -0x6fa7cd85(%rdi),%eax
  401c68:	c3                   	retq   

0000000000401c69 <setval_294>:
  401c69:	c7 07 58 90 c3 2f    	movl   $0x2fc39058,(%rdi)
  401c6f:	c3                   	retq   

0000000000401c70 <mid_farm>:
  401c70:	b8 01 00 00 00       	mov    $0x1,%eax
  401c75:	c3                   	retq   

0000000000401c76 <add_xy>:
  401c76:	48 8d 04 37          	lea    (%rdi,%rsi,1),%rax
  401c7a:	c3                   	retq   

0000000000401c7b <getval_414>:
  401c7b:	b8 89 ce 90 c3       	mov    $0xc390ce89,%eax
  401c80:	c3                   	retq   

0000000000401c81 <setval_477>:
  401c81:	c7 07 89 ce 92 c3    	movl   $0xc392ce89,(%rdi)
  401c87:	c3                   	retq   

0000000000401c88 <getval_215>:
  401c88:	b8 48 89 e0 c7       	mov    $0xc7e08948,%eax
  401c8d:	c3                   	retq   

0000000000401c8e <setval_197>:
  401c8e:	c7 07 89 c2 38 d2    	movl   $0xd238c289,(%rdi)
  401c94:	c3                   	retq   

0000000000401c95 <setval_112>:
  401c95:	c7 07 89 ce a4 c0    	movl   $0xc0a4ce89,(%rdi)
  401c9b:	c3                   	retq   

0000000000401c9c <addval_171>:
  401c9c:	8d 87 88 d1 38 c9    	lea    -0x36c72e78(%rdi),%eax
  401ca2:	c3                   	retq   

0000000000401ca3 <getval_243>:
  401ca3:	b8 4c 48 89 e0       	mov    $0xe089484c,%eax
  401ca8:	c3                   	retq   

0000000000401ca9 <getval_281>:
  401ca9:	b8 81 c2 08 c9       	mov    $0xc908c281,%eax
  401cae:	c3                   	retq   

0000000000401caf <getval_429>:
  401caf:	b8 7f 5c c9 ce       	mov    $0xcec95c7f,%eax
  401cb4:	c3                   	retq   

0000000000401cb5 <getval_304>:
  401cb5:	b8 89 c2 20 db       	mov    $0xdb20c289,%eax
  401cba:	c3                   	retq   

0000000000401cbb <getval_209>:
  401cbb:	b8 48 89 e0 c2       	mov    $0xc2e08948,%eax
  401cc0:	c3                   	retq   

0000000000401cc1 <addval_223>:
  401cc1:	8d 87 89 d1 38 c0    	lea    -0x3fc72e77(%rdi),%eax
  401cc7:	c3                   	retq   

0000000000401cc8 <getval_337>:
  401cc8:	b8 88 d1 38 c9       	mov    $0xc938d188,%eax
  401ccd:	c3                   	retq   

0000000000401cce <setval_359>:
  401cce:	c7 07 89 d1 94 c0    	movl   $0xc094d189,(%rdi)
  401cd4:	c3                   	retq   

0000000000401cd5 <addval_298>:
  401cd5:	8d 87 8d ce 38 d2    	lea    -0x2dc73173(%rdi),%eax
  401cdb:	c3                   	retq   

0000000000401cdc <getval_377>:
  401cdc:	b8 69 cb a9 d1       	mov    $0xd1a9cb69,%eax
  401ce1:	c3                   	retq   

0000000000401ce2 <addval_341>:
  401ce2:	8d 87 be 89 c2 91    	lea    -0x6e3d7642(%rdi),%eax
  401ce8:	c3                   	retq   

0000000000401ce9 <getval_192>:
  401ce9:	b8 99 c2 08 d2       	mov    $0xd208c299,%eax
  401cee:	c3                   	retq   

0000000000401cef <addval_322>:
  401cef:	8d 87 48 89 e0 90    	lea    -0x6f1f76b8(%rdi),%eax
  401cf5:	c3                   	retq   

0000000000401cf6 <getval_210>:
  401cf6:	b8 99 d1 84 d2       	mov    $0xd284d199,%eax
  401cfb:	c3                   	retq   

0000000000401cfc <addval_154>:
  401cfc:	8d 87 89 ce 48 db    	lea    -0x24b73177(%rdi),%eax
  401d02:	c3                   	retq   

0000000000401d03 <addval_133>:
  401d03:	8d 87 89 c2 28 db    	lea    -0x24d73d77(%rdi),%eax
  401d09:	c3                   	retq   

0000000000401d0a <getval_336>:
  401d0a:	b8 89 d1 38 c0       	mov    $0xc038d189,%eax
  401d0f:	c3                   	retq   

0000000000401d10 <getval_398>:
  401d10:	b8 89 d1 c7 51       	mov    $0x51c7d189,%eax
  401d15:	c3                   	retq   

0000000000401d16 <setval_248>:
  401d16:	c7 07 89 ce 84 c9    	movl   $0xc984ce89,(%rdi)
  401d1c:	c3                   	retq   

0000000000401d1d <setval_403>:
  401d1d:	c7 07 91 89 c2 92    	movl   $0x92c28991,(%rdi)
  401d23:	c3                   	retq   

0000000000401d24 <getval_481>:
  401d24:	b8 48 8d e0 c3       	mov    $0xc3e08d48,%eax
  401d29:	c3                   	retq   

0000000000401d2a <getval_160>:
  401d2a:	b8 89 c2 94 c3       	mov    $0xc394c289,%eax
  401d2f:	c3                   	retq   

0000000000401d30 <getval_128>:
  401d30:	b8 48 99 e0 c3       	mov    $0xc3e09948,%eax
  401d35:	c3                   	retq   

0000000000401d36 <addval_339>:
  401d36:	8d 87 09 ce 08 c0    	lea    -0x3ff731f7(%rdi),%eax
  401d3c:	c3                   	retq   

0000000000401d3d <getval_274>:
  401d3d:	b8 48 89 e0 c7       	mov    $0xc7e08948,%eax
  401d42:	c3                   	retq   

0000000000401d43 <addval_447>:
  401d43:	8d 87 48 88 e0 c3    	lea    -0x3c1f77b8(%rdi),%eax
  401d49:	c3                   	retq   

0000000000401d4a <end_farm>:
  401d4a:	b8 01 00 00 00       	mov    $0x1,%eax
  401d4f:	c3                   	retq   

0000000000401d50 <save_char>:
  401d50:	8b 05 ee 43 20 00    	mov    0x2043ee(%rip),%eax        # 606144 <gets_cnt>
  401d56:	3d ff 03 00 00       	cmp    $0x3ff,%eax
  401d5b:	7f 4a                	jg     401da7 <save_char+0x57>
  401d5d:	89 f9                	mov    %edi,%ecx
  401d5f:	c0 e9 04             	shr    $0x4,%cl
  401d62:	8d 14 40             	lea    (%rax,%rax,2),%edx
  401d65:	4c 8d 05 a4 1c 00 00 	lea    0x1ca4(%rip),%r8        # 403a10 <trans_char>
  401d6c:	83 e1 0f             	and    $0xf,%ecx
  401d6f:	45 0f b6 0c 08       	movzbl (%r8,%rcx,1),%r9d
  401d74:	48 8d 0d c5 37 20 00 	lea    0x2037c5(%rip),%rcx        # 605540 <gets_buf>
  401d7b:	48 63 f2             	movslq %edx,%rsi
  401d7e:	44 88 0c 31          	mov    %r9b,(%rcx,%rsi,1)
  401d82:	8d 72 01             	lea    0x1(%rdx),%esi
  401d85:	83 e7 0f             	and    $0xf,%edi
  401d88:	41 0f b6 3c 38       	movzbl (%r8,%rdi,1),%edi
  401d8d:	48 63 f6             	movslq %esi,%rsi
  401d90:	40 88 3c 31          	mov    %dil,(%rcx,%rsi,1)
  401d94:	83 c2 02             	add    $0x2,%edx
  401d97:	48 63 d2             	movslq %edx,%rdx
  401d9a:	c6 04 11 20          	movb   $0x20,(%rcx,%rdx,1)
  401d9e:	83 c0 01             	add    $0x1,%eax
  401da1:	89 05 9d 43 20 00    	mov    %eax,0x20439d(%rip)        # 606144 <gets_cnt>
  401da7:	f3 c3                	repz retq 

0000000000401da9 <save_term>:
  401da9:	8b 05 95 43 20 00    	mov    0x204395(%rip),%eax        # 606144 <gets_cnt>
  401daf:	8d 04 40             	lea    (%rax,%rax,2),%eax
  401db2:	48 98                	cltq   
  401db4:	48 8d 15 85 37 20 00 	lea    0x203785(%rip),%rdx        # 605540 <gets_buf>
  401dbb:	c6 04 02 00          	movb   $0x0,(%rdx,%rax,1)
  401dbf:	c3                   	retq   

0000000000401dc0 <check_fail>:
  401dc0:	48 83 ec 08          	sub    $0x8,%rsp
  401dc4:	0f be 15 7d 43 20 00 	movsbl 0x20437d(%rip),%edx        # 606148 <target_prefix>
  401dcb:	4c 8d 05 6e 37 20 00 	lea    0x20376e(%rip),%r8        # 605540 <gets_buf>
  401dd2:	8b 0d 40 37 20 00    	mov    0x203740(%rip),%ecx        # 605518 <check_level>
  401dd8:	48 8d 35 ff 18 00 00 	lea    0x18ff(%rip),%rsi        # 4036de <_IO_stdin_used+0x42e>
  401ddf:	bf 01 00 00 00       	mov    $0x1,%edi
  401de4:	b8 00 00 00 00       	mov    $0x0,%eax
  401de9:	e8 72 f0 ff ff       	callq  400e60 <__printf_chk@plt>
  401dee:	bf 01 00 00 00       	mov    $0x1,%edi
  401df3:	e8 b8 f0 ff ff       	callq  400eb0 <exit@plt>

0000000000401df8 <Gets>:
  401df8:	41 54                	push   %r12
  401dfa:	55                   	push   %rbp
  401dfb:	53                   	push   %rbx
  401dfc:	49 89 fc             	mov    %rdi,%r12
  401dff:	c7 05 3b 43 20 00 00 	movl   $0x0,0x20433b(%rip)        # 606144 <gets_cnt>
  401e06:	00 00 00 
  401e09:	48 89 fb             	mov    %rdi,%rbx
  401e0c:	eb 11                	jmp    401e1f <Gets+0x27>
  401e0e:	48 8d 6b 01          	lea    0x1(%rbx),%rbp
  401e12:	88 03                	mov    %al,(%rbx)
  401e14:	0f b6 f8             	movzbl %al,%edi
  401e17:	e8 34 ff ff ff       	callq  401d50 <save_char>
  401e1c:	48 89 eb             	mov    %rbp,%rbx
  401e1f:	48 8b 3d ea 36 20 00 	mov    0x2036ea(%rip),%rdi        # 605510 <infile>
  401e26:	e8 05 f0 ff ff       	callq  400e30 <_IO_getc@plt>
  401e2b:	83 f8 ff             	cmp    $0xffffffff,%eax
  401e2e:	74 05                	je     401e35 <Gets+0x3d>
  401e30:	83 f8 0a             	cmp    $0xa,%eax
  401e33:	75 d9                	jne    401e0e <Gets+0x16>
  401e35:	c6 03 00             	movb   $0x0,(%rbx)
  401e38:	b8 00 00 00 00       	mov    $0x0,%eax
  401e3d:	e8 67 ff ff ff       	callq  401da9 <save_term>
  401e42:	4c 89 e0             	mov    %r12,%rax
  401e45:	5b                   	pop    %rbx
  401e46:	5d                   	pop    %rbp
  401e47:	41 5c                	pop    %r12
  401e49:	c3                   	retq   

0000000000401e4a <notify_server>:
  401e4a:	55                   	push   %rbp
  401e4b:	53                   	push   %rbx
  401e4c:	48 81 ec 18 40 00 00 	sub    $0x4018,%rsp
  401e53:	64 48 8b 04 25 28 00 	mov    %fs:0x28,%rax
  401e5a:	00 00 
  401e5c:	48 89 84 24 08 40 00 	mov    %rax,0x4008(%rsp)
  401e63:	00 
  401e64:	31 c0                	xor    %eax,%eax
  401e66:	83 3d bb 36 20 00 00 	cmpl   $0x0,0x2036bb(%rip)        # 605528 <is_checker>
  401e6d:	0f 85 cb 01 00 00    	jne    40203e <notify_server+0x1f4>
  401e73:	89 fb                	mov    %edi,%ebx
  401e75:	8b 05 c9 42 20 00    	mov    0x2042c9(%rip),%eax        # 606144 <gets_cnt>
  401e7b:	83 c0 64             	add    $0x64,%eax
  401e7e:	3d 00 20 00 00       	cmp    $0x2000,%eax
  401e83:	0f 8f bd 00 00 00    	jg     401f46 <notify_server+0xfc>
  401e89:	0f be 05 b8 42 20 00 	movsbl 0x2042b8(%rip),%eax        # 606148 <target_prefix>
  401e90:	83 3d 11 36 20 00 00 	cmpl   $0x0,0x203611(%rip)        # 6054a8 <notify>
  401e97:	0f 84 c9 00 00 00    	je     401f66 <notify_server+0x11c>
  401e9d:	8b 15 7d 36 20 00    	mov    0x20367d(%rip),%edx        # 605520 <authkey>
  401ea3:	85 db                	test   %ebx,%ebx
  401ea5:	0f 84 c5 00 00 00    	je     401f70 <notify_server+0x126>
  401eab:	48 8d 2d 42 18 00 00 	lea    0x1842(%rip),%rbp        # 4036f4 <_IO_stdin_used+0x444>
  401eb2:	48 89 e7             	mov    %rsp,%rdi
  401eb5:	48 8d 0d 84 36 20 00 	lea    0x203684(%rip),%rcx        # 605540 <gets_buf>
  401ebc:	51                   	push   %rcx
  401ebd:	56                   	push   %rsi
  401ebe:	50                   	push   %rax
  401ebf:	52                   	push   %rdx
  401ec0:	49 89 e9             	mov    %rbp,%r9
  401ec3:	44 8b 05 86 32 20 00 	mov    0x203286(%rip),%r8d        # 605150 <target_id>
  401eca:	48 8d 0d 2d 18 00 00 	lea    0x182d(%rip),%rcx        # 4036fe <_IO_stdin_used+0x44e>
  401ed1:	ba 00 20 00 00       	mov    $0x2000,%edx
  401ed6:	be 01 00 00 00       	mov    $0x1,%esi
  401edb:	b8 00 00 00 00       	mov    $0x0,%eax
  401ee0:	e8 fb ef ff ff       	callq  400ee0 <__sprintf_chk@plt>
  401ee5:	48 83 c4 20          	add    $0x20,%rsp
  401ee9:	83 3d b8 35 20 00 00 	cmpl   $0x0,0x2035b8(%rip)        # 6054a8 <notify>
  401ef0:	0f 84 bf 00 00 00    	je     401fb5 <notify_server+0x16b>
  401ef6:	48 89 e1             	mov    %rsp,%rcx
  401ef9:	4c 8d 8c 24 00 20 00 	lea    0x2000(%rsp),%r9
  401f00:	00 
  401f01:	41 b8 00 00 00 00    	mov    $0x0,%r8d
  401f07:	48 8b 15 5a 32 20 00 	mov    0x20325a(%rip),%rdx        # 605168 <lab>
  401f0e:	48 8b 35 5b 32 20 00 	mov    0x20325b(%rip),%rsi        # 605170 <course>
  401f15:	48 8b 3d 44 32 20 00 	mov    0x203244(%rip),%rdi        # 605160 <user_id>
  401f1c:	e8 45 12 00 00       	callq  403166 <driver_post>
  401f21:	85 c0                	test   %eax,%eax
  401f23:	78 57                	js     401f7c <notify_server+0x132>
  401f25:	85 db                	test   %ebx,%ebx
  401f27:	74 7b                	je     401fa4 <notify_server+0x15a>
  401f29:	48 8d 3d 20 19 00 00 	lea    0x1920(%rip),%rdi        # 403850 <_IO_stdin_used+0x5a0>
  401f30:	e8 0b ee ff ff       	callq  400d40 <puts@plt>
  401f35:	48 8d 3d ea 17 00 00 	lea    0x17ea(%rip),%rdi        # 403726 <_IO_stdin_used+0x476>
  401f3c:	e8 ff ed ff ff       	callq  400d40 <puts@plt>
  401f41:	e9 f8 00 00 00       	jmpq   40203e <notify_server+0x1f4>
  401f46:	48 8d 35 d3 18 00 00 	lea    0x18d3(%rip),%rsi        # 403820 <_IO_stdin_used+0x570>
  401f4d:	bf 01 00 00 00       	mov    $0x1,%edi
  401f52:	b8 00 00 00 00       	mov    $0x0,%eax
  401f57:	e8 04 ef ff ff       	callq  400e60 <__printf_chk@plt>
  401f5c:	bf 01 00 00 00       	mov    $0x1,%edi
  401f61:	e8 4a ef ff ff       	callq  400eb0 <exit@plt>
  401f66:	ba ff ff ff ff       	mov    $0xffffffff,%edx
  401f6b:	e9 33 ff ff ff       	jmpq   401ea3 <notify_server+0x59>
  401f70:	48 8d 2d 82 17 00 00 	lea    0x1782(%rip),%rbp        # 4036f9 <_IO_stdin_used+0x449>
  401f77:	e9 36 ff ff ff       	jmpq   401eb2 <notify_server+0x68>
  401f7c:	48 8d 94 24 00 20 00 	lea    0x2000(%rsp),%rdx
  401f83:	00 
  401f84:	48 8d 35 8f 17 00 00 	lea    0x178f(%rip),%rsi        # 40371a <_IO_stdin_used+0x46a>
  401f8b:	bf 01 00 00 00       	mov    $0x1,%edi
  401f90:	b8 00 00 00 00       	mov    $0x0,%eax
  401f95:	e8 c6 ee ff ff       	callq  400e60 <__printf_chk@plt>
  401f9a:	bf 01 00 00 00       	mov    $0x1,%edi
  401f9f:	e8 0c ef ff ff       	callq  400eb0 <exit@plt>
  401fa4:	48 8d 3d 85 17 00 00 	lea    0x1785(%rip),%rdi        # 403730 <_IO_stdin_used+0x480>
  401fab:	e8 90 ed ff ff       	callq  400d40 <puts@plt>
  401fb0:	e9 89 00 00 00       	jmpq   40203e <notify_server+0x1f4>
  401fb5:	48 89 ea             	mov    %rbp,%rdx
  401fb8:	48 8d 35 c9 18 00 00 	lea    0x18c9(%rip),%rsi        # 403888 <_IO_stdin_used+0x5d8>
  401fbf:	bf 01 00 00 00       	mov    $0x1,%edi
  401fc4:	b8 00 00 00 00       	mov    $0x0,%eax
  401fc9:	e8 92 ee ff ff       	callq  400e60 <__printf_chk@plt>
  401fce:	48 8b 15 8b 31 20 00 	mov    0x20318b(%rip),%rdx        # 605160 <user_id>
  401fd5:	48 8d 35 5b 17 00 00 	lea    0x175b(%rip),%rsi        # 403737 <_IO_stdin_used+0x487>
  401fdc:	bf 01 00 00 00       	mov    $0x1,%edi
  401fe1:	b8 00 00 00 00       	mov    $0x0,%eax
  401fe6:	e8 75 ee ff ff       	callq  400e60 <__printf_chk@plt>
  401feb:	48 8b 15 7e 31 20 00 	mov    0x20317e(%rip),%rdx        # 605170 <course>
  401ff2:	48 8d 35 4b 17 00 00 	lea    0x174b(%rip),%rsi        # 403744 <_IO_stdin_used+0x494>
  401ff9:	bf 01 00 00 00       	mov    $0x1,%edi
  401ffe:	b8 00 00 00 00       	mov    $0x0,%eax
  402003:	e8 58 ee ff ff       	callq  400e60 <__printf_chk@plt>
  402008:	48 8b 15 59 31 20 00 	mov    0x203159(%rip),%rdx        # 605168 <lab>
  40200f:	48 8d 35 3a 17 00 00 	lea    0x173a(%rip),%rsi        # 403750 <_IO_stdin_used+0x4a0>
  402016:	bf 01 00 00 00       	mov    $0x1,%edi
  40201b:	b8 00 00 00 00       	mov    $0x0,%eax
  402020:	e8 3b ee ff ff       	callq  400e60 <__printf_chk@plt>
  402025:	48 89 e2             	mov    %rsp,%rdx
  402028:	48 8d 35 2a 17 00 00 	lea    0x172a(%rip),%rsi        # 403759 <_IO_stdin_used+0x4a9>
  40202f:	bf 01 00 00 00       	mov    $0x1,%edi
  402034:	b8 00 00 00 00       	mov    $0x0,%eax
  402039:	e8 22 ee ff ff       	callq  400e60 <__printf_chk@plt>
  40203e:	48 8b 84 24 08 40 00 	mov    0x4008(%rsp),%rax
  402045:	00 
  402046:	64 48 33 04 25 28 00 	xor    %fs:0x28,%rax
  40204d:	00 00 
  40204f:	75 0a                	jne    40205b <notify_server+0x211>
  402051:	48 81 c4 18 40 00 00 	add    $0x4018,%rsp
  402058:	5b                   	pop    %rbx
  402059:	5d                   	pop    %rbp
  40205a:	c3                   	retq   
  40205b:	e8 4b 02 00 00       	callq  4022ab <__stack_chk_fail>

0000000000402060 <validate>:
  402060:	53                   	push   %rbx
  402061:	89 fb                	mov    %edi,%ebx
  402063:	83 3d be 34 20 00 00 	cmpl   $0x0,0x2034be(%rip)        # 605528 <is_checker>
  40206a:	74 72                	je     4020de <validate+0x7e>
  40206c:	39 3d aa 34 20 00    	cmp    %edi,0x2034aa(%rip)        # 60551c <vlevel>
  402072:	75 32                	jne    4020a6 <validate+0x46>
  402074:	8b 15 9e 34 20 00    	mov    0x20349e(%rip),%edx        # 605518 <check_level>
  40207a:	39 fa                	cmp    %edi,%edx
  40207c:	75 3e                	jne    4020bc <validate+0x5c>
  40207e:	0f be 15 c3 40 20 00 	movsbl 0x2040c3(%rip),%edx        # 606148 <target_prefix>
  402085:	4c 8d 05 b4 34 20 00 	lea    0x2034b4(%rip),%r8        # 605540 <gets_buf>
  40208c:	89 f9                	mov    %edi,%ecx
  40208e:	48 8d 35 ee 16 00 00 	lea    0x16ee(%rip),%rsi        # 403783 <_IO_stdin_used+0x4d3>
  402095:	bf 01 00 00 00       	mov    $0x1,%edi
  40209a:	b8 00 00 00 00       	mov    $0x0,%eax
  40209f:	e8 bc ed ff ff       	callq  400e60 <__printf_chk@plt>
  4020a4:	5b                   	pop    %rbx
  4020a5:	c3                   	retq   
  4020a6:	48 8d 3d b8 16 00 00 	lea    0x16b8(%rip),%rdi        # 403765 <_IO_stdin_used+0x4b5>
  4020ad:	e8 8e ec ff ff       	callq  400d40 <puts@plt>
  4020b2:	b8 00 00 00 00       	mov    $0x0,%eax
  4020b7:	e8 04 fd ff ff       	callq  401dc0 <check_fail>
  4020bc:	89 f9                	mov    %edi,%ecx
  4020be:	48 8d 35 eb 17 00 00 	lea    0x17eb(%rip),%rsi        # 4038b0 <_IO_stdin_used+0x600>
  4020c5:	bf 01 00 00 00       	mov    $0x1,%edi
  4020ca:	b8 00 00 00 00       	mov    $0x0,%eax
  4020cf:	e8 8c ed ff ff       	callq  400e60 <__printf_chk@plt>
  4020d4:	b8 00 00 00 00       	mov    $0x0,%eax
  4020d9:	e8 e2 fc ff ff       	callq  401dc0 <check_fail>
  4020de:	39 3d 38 34 20 00    	cmp    %edi,0x203438(%rip)        # 60551c <vlevel>
  4020e4:	74 1a                	je     402100 <validate+0xa0>
  4020e6:	48 8d 3d 78 16 00 00 	lea    0x1678(%rip),%rdi        # 403765 <_IO_stdin_used+0x4b5>
  4020ed:	e8 4e ec ff ff       	callq  400d40 <puts@plt>
  4020f2:	89 de                	mov    %ebx,%esi
  4020f4:	bf 00 00 00 00       	mov    $0x0,%edi
  4020f9:	e8 4c fd ff ff       	callq  401e4a <notify_server>
  4020fe:	eb a4                	jmp    4020a4 <validate+0x44>
  402100:	0f be 0d 41 40 20 00 	movsbl 0x204041(%rip),%ecx        # 606148 <target_prefix>
  402107:	89 fa                	mov    %edi,%edx
  402109:	48 8d 35 c8 17 00 00 	lea    0x17c8(%rip),%rsi        # 4038d8 <_IO_stdin_used+0x628>
  402110:	bf 01 00 00 00       	mov    $0x1,%edi
  402115:	b8 00 00 00 00       	mov    $0x0,%eax
  40211a:	e8 41 ed ff ff       	callq  400e60 <__printf_chk@plt>
  40211f:	89 de                	mov    %ebx,%esi
  402121:	bf 01 00 00 00       	mov    $0x1,%edi
  402126:	e8 1f fd ff ff       	callq  401e4a <notify_server>
  40212b:	e9 74 ff ff ff       	jmpq   4020a4 <validate+0x44>

0000000000402130 <fail>:
  402130:	48 83 ec 08          	sub    $0x8,%rsp
  402134:	83 3d ed 33 20 00 00 	cmpl   $0x0,0x2033ed(%rip)        # 605528 <is_checker>
  40213b:	75 11                	jne    40214e <fail+0x1e>
  40213d:	89 fe                	mov    %edi,%esi
  40213f:	bf 00 00 00 00       	mov    $0x0,%edi
  402144:	e8 01 fd ff ff       	callq  401e4a <notify_server>
  402149:	48 83 c4 08          	add    $0x8,%rsp
  40214d:	c3                   	retq   
  40214e:	b8 00 00 00 00       	mov    $0x0,%eax
  402153:	e8 68 fc ff ff       	callq  401dc0 <check_fail>

0000000000402158 <bushandler>:
  402158:	48 83 ec 08          	sub    $0x8,%rsp
  40215c:	83 3d c5 33 20 00 00 	cmpl   $0x0,0x2033c5(%rip)        # 605528 <is_checker>
  402163:	74 16                	je     40217b <bushandler+0x23>
  402165:	48 8d 3d 2c 16 00 00 	lea    0x162c(%rip),%rdi        # 403798 <_IO_stdin_used+0x4e8>
  40216c:	e8 cf eb ff ff       	callq  400d40 <puts@plt>
  402171:	b8 00 00 00 00       	mov    $0x0,%eax
  402176:	e8 45 fc ff ff       	callq  401dc0 <check_fail>
  40217b:	48 8d 3d 8e 17 00 00 	lea    0x178e(%rip),%rdi        # 403910 <_IO_stdin_used+0x660>
  402182:	e8 b9 eb ff ff       	callq  400d40 <puts@plt>
  402187:	48 8d 3d 14 16 00 00 	lea    0x1614(%rip),%rdi        # 4037a2 <_IO_stdin_used+0x4f2>
  40218e:	e8 ad eb ff ff       	callq  400d40 <puts@plt>
  402193:	be 00 00 00 00       	mov    $0x0,%esi
  402198:	bf 00 00 00 00       	mov    $0x0,%edi
  40219d:	e8 a8 fc ff ff       	callq  401e4a <notify_server>
  4021a2:	bf 01 00 00 00       	mov    $0x1,%edi
  4021a7:	e8 04 ed ff ff       	callq  400eb0 <exit@plt>

00000000004021ac <seghandler>:
  4021ac:	48 83 ec 08          	sub    $0x8,%rsp
  4021b0:	83 3d 71 33 20 00 00 	cmpl   $0x0,0x203371(%rip)        # 605528 <is_checker>
  4021b7:	74 16                	je     4021cf <seghandler+0x23>
  4021b9:	48 8d 3d f8 15 00 00 	lea    0x15f8(%rip),%rdi        # 4037b8 <_IO_stdin_used+0x508>
  4021c0:	e8 7b eb ff ff       	callq  400d40 <puts@plt>
  4021c5:	b8 00 00 00 00       	mov    $0x0,%eax
  4021ca:	e8 f1 fb ff ff       	callq  401dc0 <check_fail>
  4021cf:	48 8d 3d 5a 17 00 00 	lea    0x175a(%rip),%rdi        # 403930 <_IO_stdin_used+0x680>
  4021d6:	e8 65 eb ff ff       	callq  400d40 <puts@plt>
  4021db:	48 8d 3d c0 15 00 00 	lea    0x15c0(%rip),%rdi        # 4037a2 <_IO_stdin_used+0x4f2>
  4021e2:	e8 59 eb ff ff       	callq  400d40 <puts@plt>
  4021e7:	be 00 00 00 00       	mov    $0x0,%esi
  4021ec:	bf 00 00 00 00       	mov    $0x0,%edi
  4021f1:	e8 54 fc ff ff       	callq  401e4a <notify_server>
  4021f6:	bf 01 00 00 00       	mov    $0x1,%edi
  4021fb:	e8 b0 ec ff ff       	callq  400eb0 <exit@plt>

0000000000402200 <illegalhandler>:
  402200:	48 83 ec 08          	sub    $0x8,%rsp
  402204:	83 3d 1d 33 20 00 00 	cmpl   $0x0,0x20331d(%rip)        # 605528 <is_checker>
  40220b:	74 16                	je     402223 <illegalhandler+0x23>
  40220d:	48 8d 3d b7 15 00 00 	lea    0x15b7(%rip),%rdi        # 4037cb <_IO_stdin_used+0x51b>
  402214:	e8 27 eb ff ff       	callq  400d40 <puts@plt>
  402219:	b8 00 00 00 00       	mov    $0x0,%eax
  40221e:	e8 9d fb ff ff       	callq  401dc0 <check_fail>
  402223:	48 8d 3d 2e 17 00 00 	lea    0x172e(%rip),%rdi        # 403958 <_IO_stdin_used+0x6a8>
  40222a:	e8 11 eb ff ff       	callq  400d40 <puts@plt>
  40222f:	48 8d 3d 6c 15 00 00 	lea    0x156c(%rip),%rdi        # 4037a2 <_IO_stdin_used+0x4f2>
  402236:	e8 05 eb ff ff       	callq  400d40 <puts@plt>
  40223b:	be 00 00 00 00       	mov    $0x0,%esi
  402240:	bf 00 00 00 00       	mov    $0x0,%edi
  402245:	e8 00 fc ff ff       	callq  401e4a <notify_server>
  40224a:	bf 01 00 00 00       	mov    $0x1,%edi
  40224f:	e8 5c ec ff ff       	callq  400eb0 <exit@plt>

0000000000402254 <sigalrmhandler>:
  402254:	48 83 ec 08          	sub    $0x8,%rsp
  402258:	83 3d c9 32 20 00 00 	cmpl   $0x0,0x2032c9(%rip)        # 605528 <is_checker>
  40225f:	74 16                	je     402277 <sigalrmhandler+0x23>
  402261:	48 8d 3d 77 15 00 00 	lea    0x1577(%rip),%rdi        # 4037df <_IO_stdin_used+0x52f>
  402268:	e8 d3 ea ff ff       	callq  400d40 <puts@plt>
  40226d:	b8 00 00 00 00       	mov    $0x0,%eax
  402272:	e8 49 fb ff ff       	callq  401dc0 <check_fail>
  402277:	ba 02 00 00 00       	mov    $0x2,%edx
  40227c:	48 8d 35 05 17 00 00 	lea    0x1705(%rip),%rsi        # 403988 <_IO_stdin_used+0x6d8>
  402283:	bf 01 00 00 00       	mov    $0x1,%edi
  402288:	b8 00 00 00 00       	mov    $0x0,%eax
  40228d:	e8 ce eb ff ff       	callq  400e60 <__printf_chk@plt>
  402292:	be 00 00 00 00       	mov    $0x0,%esi
  402297:	bf 00 00 00 00       	mov    $0x0,%edi
  40229c:	e8 a9 fb ff ff       	callq  401e4a <notify_server>
  4022a1:	bf 01 00 00 00       	mov    $0x1,%edi
  4022a6:	e8 05 ec ff ff       	callq  400eb0 <exit@plt>

00000000004022ab <__stack_chk_fail>:
  4022ab:	48 83 ec 08          	sub    $0x8,%rsp
  4022af:	83 3d 72 32 20 00 00 	cmpl   $0x0,0x203272(%rip)        # 605528 <is_checker>
  4022b6:	74 16                	je     4022ce <__stack_chk_fail+0x23>
  4022b8:	48 8d 3d 28 15 00 00 	lea    0x1528(%rip),%rdi        # 4037e7 <_IO_stdin_used+0x537>
  4022bf:	e8 7c ea ff ff       	callq  400d40 <puts@plt>
  4022c4:	b8 00 00 00 00       	mov    $0x0,%eax
  4022c9:	e8 f2 fa ff ff       	callq  401dc0 <check_fail>
  4022ce:	48 8d 3d eb 16 00 00 	lea    0x16eb(%rip),%rdi        # 4039c0 <_IO_stdin_used+0x710>
  4022d5:	e8 66 ea ff ff       	callq  400d40 <puts@plt>
  4022da:	48 8d 3d c1 14 00 00 	lea    0x14c1(%rip),%rdi        # 4037a2 <_IO_stdin_used+0x4f2>
  4022e1:	e8 5a ea ff ff       	callq  400d40 <puts@plt>
  4022e6:	be 00 00 00 00       	mov    $0x0,%esi
  4022eb:	bf 00 00 00 00       	mov    $0x0,%edi
  4022f0:	e8 55 fb ff ff       	callq  401e4a <notify_server>
  4022f5:	bf 01 00 00 00       	mov    $0x1,%edi
  4022fa:	e8 b1 eb ff ff       	callq  400eb0 <exit@plt>

00000000004022ff <launch>:
  4022ff:	55                   	push   %rbp
  402300:	48 89 e5             	mov    %rsp,%rbp
  402303:	53                   	push   %rbx
  402304:	48 83 ec 18          	sub    $0x18,%rsp
  402308:	48 89 fa             	mov    %rdi,%rdx
  40230b:	89 f3                	mov    %esi,%ebx
  40230d:	64 48 8b 04 25 28 00 	mov    %fs:0x28,%rax
  402314:	00 00 
  402316:	48 89 45 e8          	mov    %rax,-0x18(%rbp)
  40231a:	31 c0                	xor    %eax,%eax
  40231c:	48 8d 47 1e          	lea    0x1e(%rdi),%rax
  402320:	48 83 e0 f0          	and    $0xfffffffffffffff0,%rax
  402324:	48 29 c4             	sub    %rax,%rsp
  402327:	48 8d 7c 24 0f       	lea    0xf(%rsp),%rdi
  40232c:	48 83 e7 f0          	and    $0xfffffffffffffff0,%rdi
  402330:	be f4 00 00 00       	mov    $0xf4,%esi
  402335:	e8 36 ea ff ff       	callq  400d70 <memset@plt>
  40233a:	48 8b 05 7f 31 20 00 	mov    0x20317f(%rip),%rax        # 6054c0 <stdin@@GLIBC_2.2.5>
  402341:	48 39 05 c8 31 20 00 	cmp    %rax,0x2031c8(%rip)        # 605510 <infile>
  402348:	74 42                	je     40238c <launch+0x8d>
  40234a:	c7 05 c8 31 20 00 00 	movl   $0x0,0x2031c8(%rip)        # 60551c <vlevel>
  402351:	00 00 00 
  402354:	85 db                	test   %ebx,%ebx
  402356:	75 4c                	jne    4023a4 <launch+0xa5>
  402358:	b8 00 00 00 00       	mov    $0x0,%eax
  40235d:	e8 09 f8 ff ff       	callq  401b6b <test>
  402362:	83 3d bf 31 20 00 00 	cmpl   $0x0,0x2031bf(%rip)        # 605528 <is_checker>
  402369:	75 45                	jne    4023b0 <launch+0xb1>
  40236b:	48 8d 3d 9c 14 00 00 	lea    0x149c(%rip),%rdi        # 40380e <_IO_stdin_used+0x55e>
  402372:	e8 c9 e9 ff ff       	callq  400d40 <puts@plt>
  402377:	48 8b 45 e8          	mov    -0x18(%rbp),%rax
  40237b:	64 48 33 04 25 28 00 	xor    %fs:0x28,%rax
  402382:	00 00 
  402384:	75 40                	jne    4023c6 <launch+0xc7>
  402386:	48 8b 5d f8          	mov    -0x8(%rbp),%rbx
  40238a:	c9                   	leaveq 
  40238b:	c3                   	retq   
  40238c:	48 8d 35 63 14 00 00 	lea    0x1463(%rip),%rsi        # 4037f6 <_IO_stdin_used+0x546>
  402393:	bf 01 00 00 00       	mov    $0x1,%edi
  402398:	b8 00 00 00 00       	mov    $0x0,%eax
  40239d:	e8 be ea ff ff       	callq  400e60 <__printf_chk@plt>
  4023a2:	eb a6                	jmp    40234a <launch+0x4b>
  4023a4:	b8 00 00 00 00       	mov    $0x0,%eax
  4023a9:	e8 e8 f7 ff ff       	callq  401b96 <test2>
  4023ae:	eb b2                	jmp    402362 <launch+0x63>
  4023b0:	48 8d 3d 4c 14 00 00 	lea    0x144c(%rip),%rdi        # 403803 <_IO_stdin_used+0x553>
  4023b7:	e8 84 e9 ff ff       	callq  400d40 <puts@plt>
  4023bc:	b8 00 00 00 00       	mov    $0x0,%eax
  4023c1:	e8 fa f9 ff ff       	callq  401dc0 <check_fail>
  4023c6:	e8 e0 fe ff ff       	callq  4022ab <__stack_chk_fail>

00000000004023cb <stable_launch>:
  4023cb:	55                   	push   %rbp
  4023cc:	53                   	push   %rbx
  4023cd:	48 83 ec 08          	sub    $0x8,%rsp
  4023d1:	89 f5                	mov    %esi,%ebp
  4023d3:	48 89 3d 2e 31 20 00 	mov    %rdi,0x20312e(%rip)        # 605508 <global_offset>
  4023da:	41 b9 00 00 00 00    	mov    $0x0,%r9d
  4023e0:	41 b8 00 00 00 00    	mov    $0x0,%r8d
  4023e6:	b9 32 01 00 00       	mov    $0x132,%ecx
  4023eb:	ba 07 00 00 00       	mov    $0x7,%edx
  4023f0:	be 00 00 10 00       	mov    $0x100000,%esi
  4023f5:	bf 00 60 58 55       	mov    $0x55586000,%edi
  4023fa:	e8 61 e9 ff ff       	callq  400d60 <mmap@plt>
  4023ff:	48 89 c3             	mov    %rax,%rbx
  402402:	48 3d 00 60 58 55    	cmp    $0x55586000,%rax
  402408:	75 4a                	jne    402454 <stable_launch+0x89>
  40240a:	48 8d 90 f8 ff 0f 00 	lea    0xffff8(%rax),%rdx
  402411:	48 89 15 38 3d 20 00 	mov    %rdx,0x203d38(%rip)        # 606150 <stack_top>
  402418:	48 89 e0             	mov    %rsp,%rax
  40241b:	48 89 d4             	mov    %rdx,%rsp
  40241e:	48 89 c2             	mov    %rax,%rdx
  402421:	48 89 15 d8 30 20 00 	mov    %rdx,0x2030d8(%rip)        # 605500 <global_save_stack>
  402428:	89 ee                	mov    %ebp,%esi
  40242a:	48 8b 3d d7 30 20 00 	mov    0x2030d7(%rip),%rdi        # 605508 <global_offset>
  402431:	e8 c9 fe ff ff       	callq  4022ff <launch>
  402436:	48 8b 05 c3 30 20 00 	mov    0x2030c3(%rip),%rax        # 605500 <global_save_stack>
  40243d:	48 89 c4             	mov    %rax,%rsp
  402440:	be 00 00 10 00       	mov    $0x100000,%esi
  402445:	48 89 df             	mov    %rbx,%rdi
  402448:	e8 03 ea ff ff       	callq  400e50 <munmap@plt>
  40244d:	48 83 c4 08          	add    $0x8,%rsp
  402451:	5b                   	pop    %rbx
  402452:	5d                   	pop    %rbp
  402453:	c3                   	retq   
  402454:	be 00 00 10 00       	mov    $0x100000,%esi
  402459:	48 89 c7             	mov    %rax,%rdi
  40245c:	e8 ef e9 ff ff       	callq  400e50 <munmap@plt>
  402461:	b9 00 60 58 55       	mov    $0x55586000,%ecx
  402466:	48 8d 15 7b 15 00 00 	lea    0x157b(%rip),%rdx        # 4039e8 <_IO_stdin_used+0x738>
  40246d:	be 01 00 00 00       	mov    $0x1,%esi
  402472:	48 8b 3d 67 30 20 00 	mov    0x203067(%rip),%rdi        # 6054e0 <stderr@@GLIBC_2.2.5>
  402479:	b8 00 00 00 00       	mov    $0x0,%eax
  40247e:	e8 4d ea ff ff       	callq  400ed0 <__fprintf_chk@plt>
  402483:	bf 01 00 00 00       	mov    $0x1,%edi
  402488:	e8 23 ea ff ff       	callq  400eb0 <exit@plt>

000000000040248d <rio_readinitb>:
  40248d:	89 37                	mov    %esi,(%rdi)
  40248f:	c7 47 04 00 00 00 00 	movl   $0x0,0x4(%rdi)
  402496:	48 8d 47 10          	lea    0x10(%rdi),%rax
  40249a:	48 89 47 08          	mov    %rax,0x8(%rdi)
  40249e:	c3                   	retq   

000000000040249f <sigalrm_handler>:
  40249f:	48 83 ec 08          	sub    $0x8,%rsp
  4024a3:	b9 00 00 00 00       	mov    $0x0,%ecx
  4024a8:	48 8d 15 71 15 00 00 	lea    0x1571(%rip),%rdx        # 403a20 <trans_char+0x10>
  4024af:	be 01 00 00 00       	mov    $0x1,%esi
  4024b4:	48 8b 3d 25 30 20 00 	mov    0x203025(%rip),%rdi        # 6054e0 <stderr@@GLIBC_2.2.5>
  4024bb:	b8 00 00 00 00       	mov    $0x0,%eax
  4024c0:	e8 0b ea ff ff       	callq  400ed0 <__fprintf_chk@plt>
  4024c5:	bf 01 00 00 00       	mov    $0x1,%edi
  4024ca:	e8 e1 e9 ff ff       	callq  400eb0 <exit@plt>

00000000004024cf <rio_writen>:
  4024cf:	41 55                	push   %r13
  4024d1:	41 54                	push   %r12
  4024d3:	55                   	push   %rbp
  4024d4:	53                   	push   %rbx
  4024d5:	48 83 ec 08          	sub    $0x8,%rsp
  4024d9:	41 89 fc             	mov    %edi,%r12d
  4024dc:	48 89 f5             	mov    %rsi,%rbp
  4024df:	49 89 d5             	mov    %rdx,%r13
  4024e2:	48 89 d3             	mov    %rdx,%rbx
  4024e5:	eb 06                	jmp    4024ed <rio_writen+0x1e>
  4024e7:	48 29 c3             	sub    %rax,%rbx
  4024ea:	48 01 c5             	add    %rax,%rbp
  4024ed:	48 85 db             	test   %rbx,%rbx
  4024f0:	74 24                	je     402516 <rio_writen+0x47>
  4024f2:	48 89 da             	mov    %rbx,%rdx
  4024f5:	48 89 ee             	mov    %rbp,%rsi
  4024f8:	44 89 e7             	mov    %r12d,%edi
  4024fb:	e8 50 e8 ff ff       	callq  400d50 <write@plt>
  402500:	48 85 c0             	test   %rax,%rax
  402503:	7f e2                	jg     4024e7 <rio_writen+0x18>
  402505:	e8 e6 e7 ff ff       	callq  400cf0 <__errno_location@plt>
  40250a:	83 38 04             	cmpl   $0x4,(%rax)
  40250d:	75 15                	jne    402524 <rio_writen+0x55>
  40250f:	b8 00 00 00 00       	mov    $0x0,%eax
  402514:	eb d1                	jmp    4024e7 <rio_writen+0x18>
  402516:	4c 89 e8             	mov    %r13,%rax
  402519:	48 83 c4 08          	add    $0x8,%rsp
  40251d:	5b                   	pop    %rbx
  40251e:	5d                   	pop    %rbp
  40251f:	41 5c                	pop    %r12
  402521:	41 5d                	pop    %r13
  402523:	c3                   	retq   
  402524:	48 c7 c0 ff ff ff ff 	mov    $0xffffffffffffffff,%rax
  40252b:	eb ec                	jmp    402519 <rio_writen+0x4a>

000000000040252d <rio_read>:
  40252d:	41 55                	push   %r13
  40252f:	41 54                	push   %r12
  402531:	55                   	push   %rbp
  402532:	53                   	push   %rbx
  402533:	48 83 ec 08          	sub    $0x8,%rsp
  402537:	48 89 fb             	mov    %rdi,%rbx
  40253a:	49 89 f5             	mov    %rsi,%r13
  40253d:	49 89 d4             	mov    %rdx,%r12
  402540:	eb 0a                	jmp    40254c <rio_read+0x1f>
  402542:	e8 a9 e7 ff ff       	callq  400cf0 <__errno_location@plt>
  402547:	83 38 04             	cmpl   $0x4,(%rax)
  40254a:	75 5c                	jne    4025a8 <rio_read+0x7b>
  40254c:	8b 6b 04             	mov    0x4(%rbx),%ebp
  40254f:	85 ed                	test   %ebp,%ebp
  402551:	7f 24                	jg     402577 <rio_read+0x4a>
  402553:	48 8d 6b 10          	lea    0x10(%rbx),%rbp
  402557:	8b 3b                	mov    (%rbx),%edi
  402559:	ba 00 20 00 00       	mov    $0x2000,%edx
  40255e:	48 89 ee             	mov    %rbp,%rsi
  402561:	e8 3a e8 ff ff       	callq  400da0 <read@plt>
  402566:	89 43 04             	mov    %eax,0x4(%rbx)
  402569:	85 c0                	test   %eax,%eax
  40256b:	78 d5                	js     402542 <rio_read+0x15>
  40256d:	85 c0                	test   %eax,%eax
  40256f:	74 40                	je     4025b1 <rio_read+0x84>
  402571:	48 89 6b 08          	mov    %rbp,0x8(%rbx)
  402575:	eb d5                	jmp    40254c <rio_read+0x1f>
  402577:	89 e8                	mov    %ebp,%eax
  402579:	4c 39 e0             	cmp    %r12,%rax
  40257c:	72 03                	jb     402581 <rio_read+0x54>
  40257e:	44 89 e5             	mov    %r12d,%ebp
  402581:	4c 63 e5             	movslq %ebp,%r12
  402584:	48 8b 73 08          	mov    0x8(%rbx),%rsi
  402588:	4c 89 e2             	mov    %r12,%rdx
  40258b:	4c 89 ef             	mov    %r13,%rdi
  40258e:	e8 6d e8 ff ff       	callq  400e00 <memcpy@plt>
  402593:	4c 01 63 08          	add    %r12,0x8(%rbx)
  402597:	29 6b 04             	sub    %ebp,0x4(%rbx)
  40259a:	4c 89 e0             	mov    %r12,%rax
  40259d:	48 83 c4 08          	add    $0x8,%rsp
  4025a1:	5b                   	pop    %rbx
  4025a2:	5d                   	pop    %rbp
  4025a3:	41 5c                	pop    %r12
  4025a5:	41 5d                	pop    %r13
  4025a7:	c3                   	retq   
  4025a8:	48 c7 c0 ff ff ff ff 	mov    $0xffffffffffffffff,%rax
  4025af:	eb ec                	jmp    40259d <rio_read+0x70>
  4025b1:	b8 00 00 00 00       	mov    $0x0,%eax
  4025b6:	eb e5                	jmp    40259d <rio_read+0x70>

00000000004025b8 <rio_readlineb>:
  4025b8:	41 55                	push   %r13
  4025ba:	41 54                	push   %r12
  4025bc:	55                   	push   %rbp
  4025bd:	53                   	push   %rbx
  4025be:	48 83 ec 18          	sub    $0x18,%rsp
  4025c2:	49 89 fd             	mov    %rdi,%r13
  4025c5:	48 89 f5             	mov    %rsi,%rbp
  4025c8:	49 89 d4             	mov    %rdx,%r12
  4025cb:	64 48 8b 04 25 28 00 	mov    %fs:0x28,%rax
  4025d2:	00 00 
  4025d4:	48 89 44 24 08       	mov    %rax,0x8(%rsp)
  4025d9:	31 c0                	xor    %eax,%eax
  4025db:	bb 01 00 00 00       	mov    $0x1,%ebx
  4025e0:	4c 39 e3             	cmp    %r12,%rbx
  4025e3:	73 47                	jae    40262c <rio_readlineb+0x74>
  4025e5:	48 8d 74 24 07       	lea    0x7(%rsp),%rsi
  4025ea:	ba 01 00 00 00       	mov    $0x1,%edx
  4025ef:	4c 89 ef             	mov    %r13,%rdi
  4025f2:	e8 36 ff ff ff       	callq  40252d <rio_read>
  4025f7:	83 f8 01             	cmp    $0x1,%eax
  4025fa:	75 1c                	jne    402618 <rio_readlineb+0x60>
  4025fc:	48 8d 45 01          	lea    0x1(%rbp),%rax
  402600:	0f b6 54 24 07       	movzbl 0x7(%rsp),%edx
  402605:	88 55 00             	mov    %dl,0x0(%rbp)
  402608:	80 7c 24 07 0a       	cmpb   $0xa,0x7(%rsp)
  40260d:	74 1a                	je     402629 <rio_readlineb+0x71>
  40260f:	48 83 c3 01          	add    $0x1,%rbx
  402613:	48 89 c5             	mov    %rax,%rbp
  402616:	eb c8                	jmp    4025e0 <rio_readlineb+0x28>
  402618:	85 c0                	test   %eax,%eax
  40261a:	75 32                	jne    40264e <rio_readlineb+0x96>
  40261c:	48 83 fb 01          	cmp    $0x1,%rbx
  402620:	75 0a                	jne    40262c <rio_readlineb+0x74>
  402622:	b8 00 00 00 00       	mov    $0x0,%eax
  402627:	eb 0a                	jmp    402633 <rio_readlineb+0x7b>
  402629:	48 89 c5             	mov    %rax,%rbp
  40262c:	c6 45 00 00          	movb   $0x0,0x0(%rbp)
  402630:	48 89 d8             	mov    %rbx,%rax
  402633:	48 8b 4c 24 08       	mov    0x8(%rsp),%rcx
  402638:	64 48 33 0c 25 28 00 	xor    %fs:0x28,%rcx
  40263f:	00 00 
  402641:	75 14                	jne    402657 <rio_readlineb+0x9f>
  402643:	48 83 c4 18          	add    $0x18,%rsp
  402647:	5b                   	pop    %rbx
  402648:	5d                   	pop    %rbp
  402649:	41 5c                	pop    %r12
  40264b:	41 5d                	pop    %r13
  40264d:	c3                   	retq   
  40264e:	48 c7 c0 ff ff ff ff 	mov    $0xffffffffffffffff,%rax
  402655:	eb dc                	jmp    402633 <rio_readlineb+0x7b>
  402657:	e8 4f fc ff ff       	callq  4022ab <__stack_chk_fail>

000000000040265c <urlencode>:
  40265c:	41 54                	push   %r12
  40265e:	55                   	push   %rbp
  40265f:	53                   	push   %rbx
  402660:	48 83 ec 10          	sub    $0x10,%rsp
  402664:	48 89 fb             	mov    %rdi,%rbx
  402667:	48 89 f5             	mov    %rsi,%rbp
  40266a:	64 48 8b 04 25 28 00 	mov    %fs:0x28,%rax
  402671:	00 00 
  402673:	48 89 44 24 08       	mov    %rax,0x8(%rsp)
  402678:	31 c0                	xor    %eax,%eax
  40267a:	48 c7 c1 ff ff ff ff 	mov    $0xffffffffffffffff,%rcx
  402681:	f2 ae                	repnz scas %es:(%rdi),%al
  402683:	48 89 ce             	mov    %rcx,%rsi
  402686:	48 f7 d6             	not    %rsi
  402689:	8d 46 ff             	lea    -0x1(%rsi),%eax
  40268c:	eb 0f                	jmp    40269d <urlencode+0x41>
  40268e:	44 88 45 00          	mov    %r8b,0x0(%rbp)
  402692:	48 8d 6d 01          	lea    0x1(%rbp),%rbp
  402696:	48 83 c3 01          	add    $0x1,%rbx
  40269a:	44 89 e0             	mov    %r12d,%eax
  40269d:	44 8d 60 ff          	lea    -0x1(%rax),%r12d
  4026a1:	85 c0                	test   %eax,%eax
  4026a3:	0f 84 a8 00 00 00    	je     402751 <urlencode+0xf5>
  4026a9:	44 0f b6 03          	movzbl (%rbx),%r8d
  4026ad:	41 80 f8 2a          	cmp    $0x2a,%r8b
  4026b1:	0f 94 c2             	sete   %dl
  4026b4:	41 80 f8 2d          	cmp    $0x2d,%r8b
  4026b8:	0f 94 c0             	sete   %al
  4026bb:	08 c2                	or     %al,%dl
  4026bd:	75 cf                	jne    40268e <urlencode+0x32>
  4026bf:	41 80 f8 2e          	cmp    $0x2e,%r8b
  4026c3:	74 c9                	je     40268e <urlencode+0x32>
  4026c5:	41 80 f8 5f          	cmp    $0x5f,%r8b
  4026c9:	74 c3                	je     40268e <urlencode+0x32>
  4026cb:	41 8d 40 d0          	lea    -0x30(%r8),%eax
  4026cf:	3c 09                	cmp    $0x9,%al
  4026d1:	76 bb                	jbe    40268e <urlencode+0x32>
  4026d3:	41 8d 40 bf          	lea    -0x41(%r8),%eax
  4026d7:	3c 19                	cmp    $0x19,%al
  4026d9:	76 b3                	jbe    40268e <urlencode+0x32>
  4026db:	41 8d 40 9f          	lea    -0x61(%r8),%eax
  4026df:	3c 19                	cmp    $0x19,%al
  4026e1:	76 ab                	jbe    40268e <urlencode+0x32>
  4026e3:	41 80 f8 20          	cmp    $0x20,%r8b
  4026e7:	74 56                	je     40273f <urlencode+0xe3>
  4026e9:	41 8d 40 e0          	lea    -0x20(%r8),%eax
  4026ed:	3c 5f                	cmp    $0x5f,%al
  4026ef:	0f 96 c2             	setbe  %dl
  4026f2:	41 80 f8 09          	cmp    $0x9,%r8b
  4026f6:	0f 94 c0             	sete   %al
  4026f9:	08 c2                	or     %al,%dl
  4026fb:	74 4f                	je     40274c <urlencode+0xf0>
  4026fd:	48 89 e7             	mov    %rsp,%rdi
  402700:	45 0f b6 c0          	movzbl %r8b,%r8d
  402704:	48 8d 0d cd 13 00 00 	lea    0x13cd(%rip),%rcx        # 403ad8 <trans_char+0xc8>
  40270b:	ba 08 00 00 00       	mov    $0x8,%edx
  402710:	be 01 00 00 00       	mov    $0x1,%esi
  402715:	b8 00 00 00 00       	mov    $0x0,%eax
  40271a:	e8 c1 e7 ff ff       	callq  400ee0 <__sprintf_chk@plt>
  40271f:	0f b6 04 24          	movzbl (%rsp),%eax
  402723:	88 45 00             	mov    %al,0x0(%rbp)
  402726:	0f b6 44 24 01       	movzbl 0x1(%rsp),%eax
  40272b:	88 45 01             	mov    %al,0x1(%rbp)
  40272e:	0f b6 44 24 02       	movzbl 0x2(%rsp),%eax
  402733:	88 45 02             	mov    %al,0x2(%rbp)
  402736:	48 8d 6d 03          	lea    0x3(%rbp),%rbp
  40273a:	e9 57 ff ff ff       	jmpq   402696 <urlencode+0x3a>
  40273f:	c6 45 00 2b          	movb   $0x2b,0x0(%rbp)
  402743:	48 8d 6d 01          	lea    0x1(%rbp),%rbp
  402747:	e9 4a ff ff ff       	jmpq   402696 <urlencode+0x3a>
  40274c:	b8 ff ff ff ff       	mov    $0xffffffff,%eax
  402751:	48 8b 74 24 08       	mov    0x8(%rsp),%rsi
  402756:	64 48 33 34 25 28 00 	xor    %fs:0x28,%rsi
  40275d:	00 00 
  40275f:	75 09                	jne    40276a <urlencode+0x10e>
  402761:	48 83 c4 10          	add    $0x10,%rsp
  402765:	5b                   	pop    %rbx
  402766:	5d                   	pop    %rbp
  402767:	41 5c                	pop    %r12
  402769:	c3                   	retq   
  40276a:	e8 3c fb ff ff       	callq  4022ab <__stack_chk_fail>

000000000040276f <submitr>:
  40276f:	41 57                	push   %r15
  402771:	41 56                	push   %r14
  402773:	41 55                	push   %r13
  402775:	41 54                	push   %r12
  402777:	55                   	push   %rbp
  402778:	53                   	push   %rbx
  402779:	48 81 ec 68 a0 00 00 	sub    $0xa068,%rsp
  402780:	49 89 fd             	mov    %rdi,%r13
  402783:	89 74 24 1c          	mov    %esi,0x1c(%rsp)
  402787:	48 89 54 24 08       	mov    %rdx,0x8(%rsp)
  40278c:	49 89 ce             	mov    %rcx,%r14
  40278f:	4c 89 44 24 10       	mov    %r8,0x10(%rsp)
  402794:	4d 89 cf             	mov    %r9,%r15
  402797:	48 8b ac 24 a0 a0 00 	mov    0xa0a0(%rsp),%rbp
  40279e:	00 
  40279f:	64 48 8b 04 25 28 00 	mov    %fs:0x28,%rax
  4027a6:	00 00 
  4027a8:	48 89 84 24 58 a0 00 	mov    %rax,0xa058(%rsp)
  4027af:	00 
  4027b0:	31 c0                	xor    %eax,%eax
  4027b2:	c7 44 24 2c 00 00 00 	movl   $0x0,0x2c(%rsp)
  4027b9:	00 
  4027ba:	ba 00 00 00 00       	mov    $0x0,%edx
  4027bf:	be 01 00 00 00       	mov    $0x1,%esi
  4027c4:	bf 02 00 00 00       	mov    $0x2,%edi
  4027c9:	e8 22 e7 ff ff       	callq  400ef0 <socket@plt>
  4027ce:	85 c0                	test   %eax,%eax
  4027d0:	0f 88 ae 02 00 00    	js     402a84 <submitr+0x315>
  4027d6:	89 c3                	mov    %eax,%ebx
  4027d8:	4c 89 ef             	mov    %r13,%rdi
  4027db:	e8 f0 e5 ff ff       	callq  400dd0 <gethostbyname@plt>
  4027e0:	48 85 c0             	test   %rax,%rax
  4027e3:	0f 84 e7 02 00 00    	je     402ad0 <submitr+0x361>
  4027e9:	4c 8d 64 24 30       	lea    0x30(%rsp),%r12
  4027ee:	48 c7 44 24 32 00 00 	movq   $0x0,0x32(%rsp)
  4027f5:	00 00 
  4027f7:	c7 44 24 3a 00 00 00 	movl   $0x0,0x3a(%rsp)
  4027fe:	00 
  4027ff:	66 c7 44 24 3e 00 00 	movw   $0x0,0x3e(%rsp)
  402806:	66 c7 44 24 30 02 00 	movw   $0x2,0x30(%rsp)
  40280d:	48 63 50 14          	movslq 0x14(%rax),%rdx
  402811:	48 8b 40 18          	mov    0x18(%rax),%rax
  402815:	48 8b 30             	mov    (%rax),%rsi
  402818:	48 8d 7c 24 34       	lea    0x34(%rsp),%rdi
  40281d:	b9 0c 00 00 00       	mov    $0xc,%ecx
  402822:	e8 b9 e5 ff ff       	callq  400de0 <__memmove_chk@plt>
  402827:	0f b7 44 24 1c       	movzwl 0x1c(%rsp),%eax
  40282c:	66 c1 c8 08          	ror    $0x8,%ax
  402830:	66 89 44 24 32       	mov    %ax,0x32(%rsp)
  402835:	ba 10 00 00 00       	mov    $0x10,%edx
  40283a:	4c 89 e6             	mov    %r12,%rsi
  40283d:	89 df                	mov    %ebx,%edi
  40283f:	e8 7c e6 ff ff       	callq  400ec0 <connect@plt>
  402844:	85 c0                	test   %eax,%eax
  402846:	0f 88 fa 02 00 00    	js     402b46 <submitr+0x3d7>
  40284c:	48 c7 c6 ff ff ff ff 	mov    $0xffffffffffffffff,%rsi
  402853:	b8 00 00 00 00       	mov    $0x0,%eax
  402858:	48 89 f1             	mov    %rsi,%rcx
  40285b:	4c 89 ff             	mov    %r15,%rdi
  40285e:	f2 ae                	repnz scas %es:(%rdi),%al
  402860:	48 89 ca             	mov    %rcx,%rdx
  402863:	48 f7 d2             	not    %rdx
  402866:	48 89 f1             	mov    %rsi,%rcx
  402869:	48 8b 7c 24 08       	mov    0x8(%rsp),%rdi
  40286e:	f2 ae                	repnz scas %es:(%rdi),%al
  402870:	48 f7 d1             	not    %rcx
  402873:	49 89 c8             	mov    %rcx,%r8
  402876:	48 89 f1             	mov    %rsi,%rcx
  402879:	4c 89 f7             	mov    %r14,%rdi
  40287c:	f2 ae                	repnz scas %es:(%rdi),%al
  40287e:	48 f7 d1             	not    %rcx
  402881:	4d 8d 44 08 fe       	lea    -0x2(%r8,%rcx,1),%r8
  402886:	48 89 f1             	mov    %rsi,%rcx
  402889:	48 8b 7c 24 10       	mov    0x10(%rsp),%rdi
  40288e:	f2 ae                	repnz scas %es:(%rdi),%al
  402890:	48 89 c8             	mov    %rcx,%rax
  402893:	48 f7 d0             	not    %rax
  402896:	49 8d 4c 00 ff       	lea    -0x1(%r8,%rax,1),%rcx
  40289b:	48 8d 44 52 fd       	lea    -0x3(%rdx,%rdx,2),%rax
  4028a0:	48 8d 84 01 80 00 00 	lea    0x80(%rcx,%rax,1),%rax
  4028a7:	00 
  4028a8:	48 3d 00 20 00 00    	cmp    $0x2000,%rax
  4028ae:	0f 87 fa 02 00 00    	ja     402bae <submitr+0x43f>
  4028b4:	48 8d b4 24 50 40 00 	lea    0x4050(%rsp),%rsi
  4028bb:	00 
  4028bc:	b9 00 04 00 00       	mov    $0x400,%ecx
  4028c1:	b8 00 00 00 00       	mov    $0x0,%eax
  4028c6:	48 89 f7             	mov    %rsi,%rdi
  4028c9:	f3 48 ab             	rep stos %rax,%es:(%rdi)
  4028cc:	4c 89 ff             	mov    %r15,%rdi
  4028cf:	e8 88 fd ff ff       	callq  40265c <urlencode>
  4028d4:	85 c0                	test   %eax,%eax
  4028d6:	0f 88 45 03 00 00    	js     402c21 <submitr+0x4b2>
  4028dc:	4c 8d a4 24 50 20 00 	lea    0x2050(%rsp),%r12
  4028e3:	00 
  4028e4:	48 83 ec 08          	sub    $0x8,%rsp
  4028e8:	41 55                	push   %r13
  4028ea:	48 8d 84 24 60 40 00 	lea    0x4060(%rsp),%rax
  4028f1:	00 
  4028f2:	50                   	push   %rax
  4028f3:	41 56                	push   %r14
  4028f5:	4c 8b 4c 24 30       	mov    0x30(%rsp),%r9
  4028fa:	4c 8b 44 24 28       	mov    0x28(%rsp),%r8
  4028ff:	48 8d 0d 42 11 00 00 	lea    0x1142(%rip),%rcx        # 403a48 <trans_char+0x38>
  402906:	ba 00 20 00 00       	mov    $0x2000,%edx
  40290b:	be 01 00 00 00       	mov    $0x1,%esi
  402910:	4c 89 e7             	mov    %r12,%rdi
  402913:	b8 00 00 00 00       	mov    $0x0,%eax
  402918:	e8 c3 e5 ff ff       	callq  400ee0 <__sprintf_chk@plt>
  40291d:	48 c7 c1 ff ff ff ff 	mov    $0xffffffffffffffff,%rcx
  402924:	b8 00 00 00 00       	mov    $0x0,%eax
  402929:	4c 89 e7             	mov    %r12,%rdi
  40292c:	f2 ae                	repnz scas %es:(%rdi),%al
  40292e:	48 89 ca             	mov    %rcx,%rdx
  402931:	48 f7 d2             	not    %rdx
  402934:	48 8d 52 ff          	lea    -0x1(%rdx),%rdx
  402938:	48 83 c4 20          	add    $0x20,%rsp
  40293c:	4c 89 e6             	mov    %r12,%rsi
  40293f:	89 df                	mov    %ebx,%edi
  402941:	e8 89 fb ff ff       	callq  4024cf <rio_writen>
  402946:	48 85 c0             	test   %rax,%rax
  402949:	0f 88 5d 03 00 00    	js     402cac <submitr+0x53d>
  40294f:	4c 8d 64 24 40       	lea    0x40(%rsp),%r12
  402954:	89 de                	mov    %ebx,%esi
  402956:	4c 89 e7             	mov    %r12,%rdi
  402959:	e8 2f fb ff ff       	callq  40248d <rio_readinitb>
  40295e:	48 8d b4 24 50 20 00 	lea    0x2050(%rsp),%rsi
  402965:	00 
  402966:	ba 00 20 00 00       	mov    $0x2000,%edx
  40296b:	4c 89 e7             	mov    %r12,%rdi
  40296e:	e8 45 fc ff ff       	callq  4025b8 <rio_readlineb>
  402973:	48 85 c0             	test   %rax,%rax
  402976:	0f 8e 9c 03 00 00    	jle    402d18 <submitr+0x5a9>
  40297c:	48 8d 4c 24 2c       	lea    0x2c(%rsp),%rcx
  402981:	48 8d 94 24 50 60 00 	lea    0x6050(%rsp),%rdx
  402988:	00 
  402989:	48 8d bc 24 50 20 00 	lea    0x2050(%rsp),%rdi
  402990:	00 
  402991:	4c 8d 84 24 50 80 00 	lea    0x8050(%rsp),%r8
  402998:	00 
  402999:	48 8d 35 3f 11 00 00 	lea    0x113f(%rip),%rsi        # 403adf <trans_char+0xcf>
  4029a0:	b8 00 00 00 00       	mov    $0x0,%eax
  4029a5:	e8 96 e4 ff ff       	callq  400e40 <__isoc99_sscanf@plt>
  4029aa:	48 8d b4 24 50 20 00 	lea    0x2050(%rsp),%rsi
  4029b1:	00 
  4029b2:	b9 03 00 00 00       	mov    $0x3,%ecx
  4029b7:	48 8d 3d 38 11 00 00 	lea    0x1138(%rip),%rdi        # 403af6 <trans_char+0xe6>
  4029be:	f3 a6                	repz cmpsb %es:(%rdi),%ds:(%rsi)
  4029c0:	0f 97 c0             	seta   %al
  4029c3:	1c 00                	sbb    $0x0,%al
  4029c5:	84 c0                	test   %al,%al
  4029c7:	0f 84 cb 03 00 00    	je     402d98 <submitr+0x629>
  4029cd:	48 8d b4 24 50 20 00 	lea    0x2050(%rsp),%rsi
  4029d4:	00 
  4029d5:	48 8d 7c 24 40       	lea    0x40(%rsp),%rdi
  4029da:	ba 00 20 00 00       	mov    $0x2000,%edx
  4029df:	e8 d4 fb ff ff       	callq  4025b8 <rio_readlineb>
  4029e4:	48 85 c0             	test   %rax,%rax
  4029e7:	7f c1                	jg     4029aa <submitr+0x23b>
  4029e9:	48 b8 45 72 72 6f 72 	movabs $0x43203a726f727245,%rax
  4029f0:	3a 20 43 
  4029f3:	48 ba 6c 69 65 6e 74 	movabs $0x6e7520746e65696c,%rdx
  4029fa:	20 75 6e 
  4029fd:	48 89 45 00          	mov    %rax,0x0(%rbp)
  402a01:	48 89 55 08          	mov    %rdx,0x8(%rbp)
  402a05:	48 b8 61 62 6c 65 20 	movabs $0x206f7420656c6261,%rax
  402a0c:	74 6f 20 
  402a0f:	48 ba 72 65 61 64 20 	movabs $0x6165682064616572,%rdx
  402a16:	68 65 61 
  402a19:	48 89 45 10          	mov    %rax,0x10(%rbp)
  402a1d:	48 89 55 18          	mov    %rdx,0x18(%rbp)
  402a21:	48 b8 64 65 72 73 20 	movabs $0x6f72662073726564,%rax
  402a28:	66 72 6f 
  402a2b:	48 ba 6d 20 41 75 74 	movabs $0x616c6f747541206d,%rdx
  402a32:	6f 6c 61 
  402a35:	48 89 45 20          	mov    %rax,0x20(%rbp)
  402a39:	48 89 55 28          	mov    %rdx,0x28(%rbp)
  402a3d:	48 b8 62 20 73 65 72 	movabs $0x7265767265732062,%rax
  402a44:	76 65 72 
  402a47:	48 89 45 30          	mov    %rax,0x30(%rbp)
  402a4b:	c6 45 38 00          	movb   $0x0,0x38(%rbp)
  402a4f:	89 df                	mov    %ebx,%edi
  402a51:	e8 3a e3 ff ff       	callq  400d90 <close@plt>
  402a56:	b8 ff ff ff ff       	mov    $0xffffffff,%eax
  402a5b:	48 8b 9c 24 58 a0 00 	mov    0xa058(%rsp),%rbx
  402a62:	00 
  402a63:	64 48 33 1c 25 28 00 	xor    %fs:0x28,%rbx
  402a6a:	00 00 
  402a6c:	0f 85 96 04 00 00    	jne    402f08 <submitr+0x799>
  402a72:	48 81 c4 68 a0 00 00 	add    $0xa068,%rsp
  402a79:	5b                   	pop    %rbx
  402a7a:	5d                   	pop    %rbp
  402a7b:	41 5c                	pop    %r12
  402a7d:	41 5d                	pop    %r13
  402a7f:	41 5e                	pop    %r14
  402a81:	41 5f                	pop    %r15
  402a83:	c3                   	retq   
  402a84:	48 b8 45 72 72 6f 72 	movabs $0x43203a726f727245,%rax
  402a8b:	3a 20 43 
  402a8e:	48 ba 6c 69 65 6e 74 	movabs $0x6e7520746e65696c,%rdx
  402a95:	20 75 6e 
  402a98:	48 89 45 00          	mov    %rax,0x0(%rbp)
  402a9c:	48 89 55 08          	mov    %rdx,0x8(%rbp)
  402aa0:	48 b8 61 62 6c 65 20 	movabs $0x206f7420656c6261,%rax
  402aa7:	74 6f 20 
  402aaa:	48 ba 63 72 65 61 74 	movabs $0x7320657461657263,%rdx
  402ab1:	65 20 73 
  402ab4:	48 89 45 10          	mov    %rax,0x10(%rbp)
  402ab8:	48 89 55 18          	mov    %rdx,0x18(%rbp)
  402abc:	c7 45 20 6f 63 6b 65 	movl   $0x656b636f,0x20(%rbp)
  402ac3:	66 c7 45 24 74 00    	movw   $0x74,0x24(%rbp)
  402ac9:	b8 ff ff ff ff       	mov    $0xffffffff,%eax
  402ace:	eb 8b                	jmp    402a5b <submitr+0x2ec>
  402ad0:	48 b8 45 72 72 6f 72 	movabs $0x44203a726f727245,%rax
  402ad7:	3a 20 44 
  402ada:	48 ba 4e 53 20 69 73 	movabs $0x6e7520736920534e,%rdx
  402ae1:	20 75 6e 
  402ae4:	48 89 45 00          	mov    %rax,0x0(%rbp)
  402ae8:	48 89 55 08          	mov    %rdx,0x8(%rbp)
  402aec:	48 b8 61 62 6c 65 20 	movabs $0x206f7420656c6261,%rax
  402af3:	74 6f 20 
  402af6:	48 ba 72 65 73 6f 6c 	movabs $0x2065766c6f736572,%rdx
  402afd:	76 65 20 
  402b00:	48 89 45 10          	mov    %rax,0x10(%rbp)
  402b04:	48 89 55 18          	mov    %rdx,0x18(%rbp)
  402b08:	48 b8 41 75 74 6f 6c 	movabs $0x2062616c6f747541,%rax
  402b0f:	61 62 20 
  402b12:	48 ba 73 65 72 76 65 	movabs $0x6120726576726573,%rdx
  402b19:	72 20 61 
  402b1c:	48 89 45 20          	mov    %rax,0x20(%rbp)
  402b20:	48 89 55 28          	mov    %rdx,0x28(%rbp)
  402b24:	c7 45 30 64 64 72 65 	movl   $0x65726464,0x30(%rbp)
  402b2b:	66 c7 45 34 73 73    	movw   $0x7373,0x34(%rbp)
  402b31:	c6 45 36 00          	movb   $0x0,0x36(%rbp)
  402b35:	89 df                	mov    %ebx,%edi
  402b37:	e8 54 e2 ff ff       	callq  400d90 <close@plt>
  402b3c:	b8 ff ff ff ff       	mov    $0xffffffff,%eax
  402b41:	e9 15 ff ff ff       	jmpq   402a5b <submitr+0x2ec>
  402b46:	48 b8 45 72 72 6f 72 	movabs $0x55203a726f727245,%rax
  402b4d:	3a 20 55 
  402b50:	48 ba 6e 61 62 6c 65 	movabs $0x6f7420656c62616e,%rdx
  402b57:	20 74 6f 
  402b5a:	48 89 45 00          	mov    %rax,0x0(%rbp)
  402b5e:	48 89 55 08          	mov    %rdx,0x8(%rbp)
  402b62:	48 b8 20 63 6f 6e 6e 	movabs $0x7463656e6e6f6320,%rax
  402b69:	65 63 74 
  402b6c:	48 ba 20 74 6f 20 74 	movabs $0x20656874206f7420,%rdx
  402b73:	68 65 20 
  402b76:	48 89 45 10          	mov    %rax,0x10(%rbp)
  402b7a:	48 89 55 18          	mov    %rdx,0x18(%rbp)
  402b7e:	48 b8 41 75 74 6f 6c 	movabs $0x2062616c6f747541,%rax
  402b85:	61 62 20 
  402b88:	48 89 45 20          	mov    %rax,0x20(%rbp)
  402b8c:	c7 45 28 73 65 72 76 	movl   $0x76726573,0x28(%rbp)
  402b93:	66 c7 45 2c 65 72    	movw   $0x7265,0x2c(%rbp)
  402b99:	c6 45 2e 00          	movb   $0x0,0x2e(%rbp)
  402b9d:	89 df                	mov    %ebx,%edi
  402b9f:	e8 ec e1 ff ff       	callq  400d90 <close@plt>
  402ba4:	b8 ff ff ff ff       	mov    $0xffffffff,%eax
  402ba9:	e9 ad fe ff ff       	jmpq   402a5b <submitr+0x2ec>
  402bae:	48 b8 45 72 72 6f 72 	movabs $0x52203a726f727245,%rax
  402bb5:	3a 20 52 
  402bb8:	48 ba 65 73 75 6c 74 	movabs $0x747320746c757365,%rdx
  402bbf:	20 73 74 
  402bc2:	48 89 45 00          	mov    %rax,0x0(%rbp)
  402bc6:	48 89 55 08          	mov    %rdx,0x8(%rbp)
  402bca:	48 b8 72 69 6e 67 20 	movabs $0x6f6f7420676e6972,%rax
  402bd1:	74 6f 6f 
  402bd4:	48 ba 20 6c 61 72 67 	movabs $0x202e656772616c20,%rdx
  402bdb:	65 2e 20 
  402bde:	48 89 45 10          	mov    %rax,0x10(%rbp)
  402be2:	48 89 55 18          	mov    %rdx,0x18(%rbp)
  402be6:	48 b8 49 6e 63 72 65 	movabs $0x6573616572636e49,%rax
  402bed:	61 73 65 
  402bf0:	48 ba 20 53 55 42 4d 	movabs $0x5254494d42555320,%rdx
  402bf7:	49 54 52 
  402bfa:	48 89 45 20          	mov    %rax,0x20(%rbp)
  402bfe:	48 89 55 28          	mov    %rdx,0x28(%rbp)
  402c02:	48 b8 5f 4d 41 58 42 	movabs $0x46554258414d5f,%rax
  402c09:	55 46 00 
  402c0c:	48 89 45 30          	mov    %rax,0x30(%rbp)
  402c10:	89 df                	mov    %ebx,%edi
  402c12:	e8 79 e1 ff ff       	callq  400d90 <close@plt>
  402c17:	b8 ff ff ff ff       	mov    $0xffffffff,%eax
  402c1c:	e9 3a fe ff ff       	jmpq   402a5b <submitr+0x2ec>
  402c21:	48 b8 45 72 72 6f 72 	movabs $0x52203a726f727245,%rax
  402c28:	3a 20 52 
  402c2b:	48 ba 65 73 75 6c 74 	movabs $0x747320746c757365,%rdx
  402c32:	20 73 74 
  402c35:	48 89 45 00          	mov    %rax,0x0(%rbp)
  402c39:	48 89 55 08          	mov    %rdx,0x8(%rbp)
  402c3d:	48 b8 72 69 6e 67 20 	movabs $0x6e6f6320676e6972,%rax
  402c44:	63 6f 6e 
  402c47:	48 ba 74 61 69 6e 73 	movabs $0x6e6120736e696174,%rdx
  402c4e:	20 61 6e 
  402c51:	48 89 45 10          	mov    %rax,0x10(%rbp)
  402c55:	48 89 55 18          	mov    %rdx,0x18(%rbp)
  402c59:	48 b8 20 69 6c 6c 65 	movabs $0x6c6167656c6c6920,%rax
  402c60:	67 61 6c 
  402c63:	48 ba 20 6f 72 20 75 	movabs $0x72706e7520726f20,%rdx
  402c6a:	6e 70 72 
  402c6d:	48 89 45 20          	mov    %rax,0x20(%rbp)
  402c71:	48 89 55 28          	mov    %rdx,0x28(%rbp)
  402c75:	48 b8 69 6e 74 61 62 	movabs $0x20656c6261746e69,%rax
  402c7c:	6c 65 20 
  402c7f:	48 ba 63 68 61 72 61 	movabs $0x6574636172616863,%rdx
  402c86:	63 74 65 
  402c89:	48 89 45 30          	mov    %rax,0x30(%rbp)
  402c8d:	48 89 55 38          	mov    %rdx,0x38(%rbp)
  402c91:	66 c7 45 40 72 2e    	movw   $0x2e72,0x40(%rbp)
  402c97:	c6 45 42 00          	movb   $0x0,0x42(%rbp)
  402c9b:	89 df                	mov    %ebx,%edi
  402c9d:	e8 ee e0 ff ff       	callq  400d90 <close@plt>
  402ca2:	b8 ff ff ff ff       	mov    $0xffffffff,%eax
  402ca7:	e9 af fd ff ff       	jmpq   402a5b <submitr+0x2ec>
  402cac:	48 b8 45 72 72 6f 72 	movabs $0x43203a726f727245,%rax
  402cb3:	3a 20 43 
  402cb6:	48 ba 6c 69 65 6e 74 	movabs $0x6e7520746e65696c,%rdx
  402cbd:	20 75 6e 
  402cc0:	48 89 45 00          	mov    %rax,0x0(%rbp)
  402cc4:	48 89 55 08          	mov    %rdx,0x8(%rbp)
  402cc8:	48 b8 61 62 6c 65 20 	movabs $0x206f7420656c6261,%rax
  402ccf:	74 6f 20 
  402cd2:	48 ba 77 72 69 74 65 	movabs $0x6f74206574697277,%rdx
  402cd9:	20 74 6f 
  402cdc:	48 89 45 10          	mov    %rax,0x10(%rbp)
  402ce0:	48 89 55 18          	mov    %rdx,0x18(%rbp)
  402ce4:	48 b8 20 74 68 65 20 	movabs $0x7475412065687420,%rax
  402ceb:	41 75 74 
  402cee:	48 ba 6f 6c 61 62 20 	movabs $0x7265732062616c6f,%rdx
  402cf5:	73 65 72 
  402cf8:	48 89 45 20          	mov    %rax,0x20(%rbp)
  402cfc:	48 89 55 28          	mov    %rdx,0x28(%rbp)
  402d00:	c7 45 30 76 65 72 00 	movl   $0x726576,0x30(%rbp)
  402d07:	89 df                	mov    %ebx,%edi
  402d09:	e8 82 e0 ff ff       	callq  400d90 <close@plt>
  402d0e:	b8 ff ff ff ff       	mov    $0xffffffff,%eax
  402d13:	e9 43 fd ff ff       	jmpq   402a5b <submitr+0x2ec>
  402d18:	48 b8 45 72 72 6f 72 	movabs $0x43203a726f727245,%rax
  402d1f:	3a 20 43 
  402d22:	48 ba 6c 69 65 6e 74 	movabs $0x6e7520746e65696c,%rdx
  402d29:	20 75 6e 
  402d2c:	48 89 45 00          	mov    %rax,0x0(%rbp)
  402d30:	48 89 55 08          	mov    %rdx,0x8(%rbp)
  402d34:	48 b8 61 62 6c 65 20 	movabs $0x206f7420656c6261,%rax
  402d3b:	74 6f 20 
  402d3e:	48 ba 72 65 61 64 20 	movabs $0x7269662064616572,%rdx
  402d45:	66 69 72 
  402d48:	48 89 45 10          	mov    %rax,0x10(%rbp)
  402d4c:	48 89 55 18          	mov    %rdx,0x18(%rbp)
  402d50:	48 b8 73 74 20 68 65 	movabs $0x6564616568207473,%rax
  402d57:	61 64 65 
  402d5a:	48 ba 72 20 66 72 6f 	movabs $0x41206d6f72662072,%rdx
  402d61:	6d 20 41 
  402d64:	48 89 45 20          	mov    %rax,0x20(%rbp)
  402d68:	48 89 55 28          	mov    %rdx,0x28(%rbp)
  402d6c:	48 b8 75 74 6f 6c 61 	movabs $0x732062616c6f7475,%rax
  402d73:	62 20 73 
  402d76:	48 89 45 30          	mov    %rax,0x30(%rbp)
  402d7a:	c7 45 38 65 72 76 65 	movl   $0x65767265,0x38(%rbp)
  402d81:	66 c7 45 3c 72 00    	movw   $0x72,0x3c(%rbp)
  402d87:	89 df                	mov    %ebx,%edi
  402d89:	e8 02 e0 ff ff       	callq  400d90 <close@plt>
  402d8e:	b8 ff ff ff ff       	mov    $0xffffffff,%eax
  402d93:	e9 c3 fc ff ff       	jmpq   402a5b <submitr+0x2ec>
  402d98:	48 8d b4 24 50 20 00 	lea    0x2050(%rsp),%rsi
  402d9f:	00 
  402da0:	48 8d 7c 24 40       	lea    0x40(%rsp),%rdi
  402da5:	ba 00 20 00 00       	mov    $0x2000,%edx
  402daa:	e8 09 f8 ff ff       	callq  4025b8 <rio_readlineb>
  402daf:	48 85 c0             	test   %rax,%rax
  402db2:	0f 8e 96 00 00 00    	jle    402e4e <submitr+0x6df>
  402db8:	44 8b 44 24 2c       	mov    0x2c(%rsp),%r8d
  402dbd:	41 81 f8 c8 00 00 00 	cmp    $0xc8,%r8d
  402dc4:	0f 85 05 01 00 00    	jne    402ecf <submitr+0x760>
  402dca:	48 8d b4 24 50 20 00 	lea    0x2050(%rsp),%rsi
  402dd1:	00 
  402dd2:	48 89 ef             	mov    %rbp,%rdi
  402dd5:	e8 56 df ff ff       	callq  400d30 <strcpy@plt>
  402dda:	89 df                	mov    %ebx,%edi
  402ddc:	e8 af df ff ff       	callq  400d90 <close@plt>
  402de1:	b9 04 00 00 00       	mov    $0x4,%ecx
  402de6:	48 8d 3d 03 0d 00 00 	lea    0xd03(%rip),%rdi        # 403af0 <trans_char+0xe0>
  402ded:	48 89 ee             	mov    %rbp,%rsi
  402df0:	f3 a6                	repz cmpsb %es:(%rdi),%ds:(%rsi)
  402df2:	0f 97 c0             	seta   %al
  402df5:	1c 00                	sbb    $0x0,%al
  402df7:	0f be c0             	movsbl %al,%eax
  402dfa:	85 c0                	test   %eax,%eax
  402dfc:	0f 84 59 fc ff ff    	je     402a5b <submitr+0x2ec>
  402e02:	b9 05 00 00 00       	mov    $0x5,%ecx
  402e07:	48 8d 3d e6 0c 00 00 	lea    0xce6(%rip),%rdi        # 403af4 <trans_char+0xe4>
  402e0e:	48 89 ee             	mov    %rbp,%rsi
  402e11:	f3 a6                	repz cmpsb %es:(%rdi),%ds:(%rsi)
  402e13:	0f 97 c0             	seta   %al
  402e16:	1c 00                	sbb    $0x0,%al
  402e18:	0f be c0             	movsbl %al,%eax
  402e1b:	85 c0                	test   %eax,%eax
  402e1d:	0f 84 38 fc ff ff    	je     402a5b <submitr+0x2ec>
  402e23:	b9 03 00 00 00       	mov    $0x3,%ecx
  402e28:	48 8d 3d ca 0c 00 00 	lea    0xcca(%rip),%rdi        # 403af9 <trans_char+0xe9>
  402e2f:	48 89 ee             	mov    %rbp,%rsi
  402e32:	f3 a6                	repz cmpsb %es:(%rdi),%ds:(%rsi)
  402e34:	0f 97 c0             	seta   %al
  402e37:	1c 00                	sbb    $0x0,%al
  402e39:	0f be c0             	movsbl %al,%eax
  402e3c:	85 c0                	test   %eax,%eax
  402e3e:	0f 84 17 fc ff ff    	je     402a5b <submitr+0x2ec>
  402e44:	b8 ff ff ff ff       	mov    $0xffffffff,%eax
  402e49:	e9 0d fc ff ff       	jmpq   402a5b <submitr+0x2ec>
  402e4e:	48 b8 45 72 72 6f 72 	movabs $0x43203a726f727245,%rax
  402e55:	3a 20 43 
  402e58:	48 ba 6c 69 65 6e 74 	movabs $0x6e7520746e65696c,%rdx
  402e5f:	20 75 6e 
  402e62:	48 89 45 00          	mov    %rax,0x0(%rbp)
  402e66:	48 89 55 08          	mov    %rdx,0x8(%rbp)
  402e6a:	48 b8 61 62 6c 65 20 	movabs $0x206f7420656c6261,%rax
  402e71:	74 6f 20 
  402e74:	48 ba 72 65 61 64 20 	movabs $0x6174732064616572,%rdx
  402e7b:	73 74 61 
  402e7e:	48 89 45 10          	mov    %rax,0x10(%rbp)
  402e82:	48 89 55 18          	mov    %rdx,0x18(%rbp)
  402e86:	48 b8 74 75 73 20 6d 	movabs $0x7373656d20737574,%rax
  402e8d:	65 73 73 
  402e90:	48 ba 61 67 65 20 66 	movabs $0x6d6f726620656761,%rdx
  402e97:	72 6f 6d 
  402e9a:	48 89 45 20          	mov    %rax,0x20(%rbp)
  402e9e:	48 89 55 28          	mov    %rdx,0x28(%rbp)
  402ea2:	48 b8 20 41 75 74 6f 	movabs $0x62616c6f74754120,%rax
  402ea9:	6c 61 62 
  402eac:	48 ba 20 73 65 72 76 	movabs $0x72657672657320,%rdx
  402eb3:	65 72 00 
  402eb6:	48 89 45 30          	mov    %rax,0x30(%rbp)
  402eba:	48 89 55 38          	mov    %rdx,0x38(%rbp)
  402ebe:	89 df                	mov    %ebx,%edi
  402ec0:	e8 cb de ff ff       	callq  400d90 <close@plt>
  402ec5:	b8 ff ff ff ff       	mov    $0xffffffff,%eax
  402eca:	e9 8c fb ff ff       	jmpq   402a5b <submitr+0x2ec>
  402ecf:	4c 8d 8c 24 50 80 00 	lea    0x8050(%rsp),%r9
  402ed6:	00 
  402ed7:	48 8d 0d ca 0b 00 00 	lea    0xbca(%rip),%rcx        # 403aa8 <trans_char+0x98>
  402ede:	48 c7 c2 ff ff ff ff 	mov    $0xffffffffffffffff,%rdx
  402ee5:	be 01 00 00 00       	mov    $0x1,%esi
  402eea:	48 89 ef             	mov    %rbp,%rdi
  402eed:	b8 00 00 00 00       	mov    $0x0,%eax
  402ef2:	e8 e9 df ff ff       	callq  400ee0 <__sprintf_chk@plt>
  402ef7:	89 df                	mov    %ebx,%edi
  402ef9:	e8 92 de ff ff       	callq  400d90 <close@plt>
  402efe:	b8 ff ff ff ff       	mov    $0xffffffff,%eax
  402f03:	e9 53 fb ff ff       	jmpq   402a5b <submitr+0x2ec>
  402f08:	e8 9e f3 ff ff       	callq  4022ab <__stack_chk_fail>

0000000000402f0d <init_timeout>:
  402f0d:	85 ff                	test   %edi,%edi
  402f0f:	74 28                	je     402f39 <init_timeout+0x2c>
  402f11:	53                   	push   %rbx
  402f12:	89 fb                	mov    %edi,%ebx
  402f14:	85 ff                	test   %edi,%edi
  402f16:	78 1a                	js     402f32 <init_timeout+0x25>
  402f18:	48 8d 35 80 f5 ff ff 	lea    -0xa80(%rip),%rsi        # 40249f <sigalrm_handler>
  402f1f:	bf 0e 00 00 00       	mov    $0xe,%edi
  402f24:	e8 97 de ff ff       	callq  400dc0 <signal@plt>
  402f29:	89 df                	mov    %ebx,%edi
  402f2b:	e8 50 de ff ff       	callq  400d80 <alarm@plt>
  402f30:	5b                   	pop    %rbx
  402f31:	c3                   	retq   
  402f32:	bb 00 00 00 00       	mov    $0x0,%ebx
  402f37:	eb df                	jmp    402f18 <init_timeout+0xb>
  402f39:	f3 c3                	repz retq 

0000000000402f3b <init_driver>:
  402f3b:	41 54                	push   %r12
  402f3d:	55                   	push   %rbp
  402f3e:	53                   	push   %rbx
  402f3f:	48 83 ec 20          	sub    $0x20,%rsp
  402f43:	49 89 fc             	mov    %rdi,%r12
  402f46:	64 48 8b 04 25 28 00 	mov    %fs:0x28,%rax
  402f4d:	00 00 
  402f4f:	48 89 44 24 18       	mov    %rax,0x18(%rsp)
  402f54:	31 c0                	xor    %eax,%eax
  402f56:	be 01 00 00 00       	mov    $0x1,%esi
  402f5b:	bf 0d 00 00 00       	mov    $0xd,%edi
  402f60:	e8 5b de ff ff       	callq  400dc0 <signal@plt>
  402f65:	be 01 00 00 00       	mov    $0x1,%esi
  402f6a:	bf 1d 00 00 00       	mov    $0x1d,%edi
  402f6f:	e8 4c de ff ff       	callq  400dc0 <signal@plt>
  402f74:	be 01 00 00 00       	mov    $0x1,%esi
  402f79:	bf 1d 00 00 00       	mov    $0x1d,%edi
  402f7e:	e8 3d de ff ff       	callq  400dc0 <signal@plt>
  402f83:	ba 00 00 00 00       	mov    $0x0,%edx
  402f88:	be 01 00 00 00       	mov    $0x1,%esi
  402f8d:	bf 02 00 00 00       	mov    $0x2,%edi
  402f92:	e8 59 df ff ff       	callq  400ef0 <socket@plt>
  402f97:	85 c0                	test   %eax,%eax
  402f99:	0f 88 a3 00 00 00    	js     403042 <init_driver+0x107>
  402f9f:	89 c3                	mov    %eax,%ebx
  402fa1:	48 8d 3d 54 0b 00 00 	lea    0xb54(%rip),%rdi        # 403afc <trans_char+0xec>
  402fa8:	e8 23 de ff ff       	callq  400dd0 <gethostbyname@plt>
  402fad:	48 85 c0             	test   %rax,%rax
  402fb0:	0f 84 df 00 00 00    	je     403095 <init_driver+0x15a>
  402fb6:	48 89 e5             	mov    %rsp,%rbp
  402fb9:	48 c7 44 24 02 00 00 	movq   $0x0,0x2(%rsp)
  402fc0:	00 00 
  402fc2:	c7 45 0a 00 00 00 00 	movl   $0x0,0xa(%rbp)
  402fc9:	66 c7 45 0e 00 00    	movw   $0x0,0xe(%rbp)
  402fcf:	66 c7 04 24 02 00    	movw   $0x2,(%rsp)
  402fd5:	48 63 50 14          	movslq 0x14(%rax),%rdx
  402fd9:	48 8b 40 18          	mov    0x18(%rax),%rax
  402fdd:	48 8b 30             	mov    (%rax),%rsi
  402fe0:	48 8d 7d 04          	lea    0x4(%rbp),%rdi
  402fe4:	b9 0c 00 00 00       	mov    $0xc,%ecx
  402fe9:	e8 f2 dd ff ff       	callq  400de0 <__memmove_chk@plt>
  402fee:	66 c7 44 24 02 0b b8 	movw   $0xb80b,0x2(%rsp)
  402ff5:	ba 10 00 00 00       	mov    $0x10,%edx
  402ffa:	48 89 ee             	mov    %rbp,%rsi
  402ffd:	89 df                	mov    %ebx,%edi
  402fff:	e8 bc de ff ff       	callq  400ec0 <connect@plt>
  403004:	85 c0                	test   %eax,%eax
  403006:	0f 88 fb 00 00 00    	js     403107 <init_driver+0x1cc>
  40300c:	89 df                	mov    %ebx,%edi
  40300e:	e8 7d dd ff ff       	callq  400d90 <close@plt>
  403013:	66 41 c7 04 24 4f 4b 	movw   $0x4b4f,(%r12)
  40301a:	41 c6 44 24 02 00    	movb   $0x0,0x2(%r12)
  403020:	b8 00 00 00 00       	mov    $0x0,%eax
  403025:	48 8b 4c 24 18       	mov    0x18(%rsp),%rcx
  40302a:	64 48 33 0c 25 28 00 	xor    %fs:0x28,%rcx
  403031:	00 00 
  403033:	0f 85 28 01 00 00    	jne    403161 <init_driver+0x226>
  403039:	48 83 c4 20          	add    $0x20,%rsp
  40303d:	5b                   	pop    %rbx
  40303e:	5d                   	pop    %rbp
  40303f:	41 5c                	pop    %r12
  403041:	c3                   	retq   
  403042:	48 b8 45 72 72 6f 72 	movabs $0x43203a726f727245,%rax
  403049:	3a 20 43 
  40304c:	48 ba 6c 69 65 6e 74 	movabs $0x6e7520746e65696c,%rdx
  403053:	20 75 6e 
  403056:	49 89 04 24          	mov    %rax,(%r12)
  40305a:	49 89 54 24 08       	mov    %rdx,0x8(%r12)
  40305f:	48 b8 61 62 6c 65 20 	movabs $0x206f7420656c6261,%rax
  403066:	74 6f 20 
  403069:	48 ba 63 72 65 61 74 	movabs $0x7320657461657263,%rdx
  403070:	65 20 73 
  403073:	49 89 44 24 10       	mov    %rax,0x10(%r12)
  403078:	49 89 54 24 18       	mov    %rdx,0x18(%r12)
  40307d:	41 c7 44 24 20 6f 63 	movl   $0x656b636f,0x20(%r12)
  403084:	6b 65 
  403086:	66 41 c7 44 24 24 74 	movw   $0x74,0x24(%r12)
  40308d:	00 
  40308e:	b8 ff ff ff ff       	mov    $0xffffffff,%eax
  403093:	eb 90                	jmp    403025 <init_driver+0xea>
  403095:	48 b8 45 72 72 6f 72 	movabs $0x44203a726f727245,%rax
  40309c:	3a 20 44 
  40309f:	48 ba 4e 53 20 69 73 	movabs $0x6e7520736920534e,%rdx
  4030a6:	20 75 6e 
  4030a9:	49 89 04 24          	mov    %rax,(%r12)
  4030ad:	49 89 54 24 08       	mov    %rdx,0x8(%r12)
  4030b2:	48 b8 61 62 6c 65 20 	movabs $0x206f7420656c6261,%rax
  4030b9:	74 6f 20 
  4030bc:	48 ba 72 65 73 6f 6c 	movabs $0x2065766c6f736572,%rdx
  4030c3:	76 65 20 
  4030c6:	49 89 44 24 10       	mov    %rax,0x10(%r12)
  4030cb:	49 89 54 24 18       	mov    %rdx,0x18(%r12)
  4030d0:	48 b8 73 65 72 76 65 	movabs $0x6120726576726573,%rax
  4030d7:	72 20 61 
  4030da:	49 89 44 24 20       	mov    %rax,0x20(%r12)
  4030df:	41 c7 44 24 28 64 64 	movl   $0x65726464,0x28(%r12)
  4030e6:	72 65 
  4030e8:	66 41 c7 44 24 2c 73 	movw   $0x7373,0x2c(%r12)
  4030ef:	73 
  4030f0:	41 c6 44 24 2e 00    	movb   $0x0,0x2e(%r12)
  4030f6:	89 df                	mov    %ebx,%edi
  4030f8:	e8 93 dc ff ff       	callq  400d90 <close@plt>
  4030fd:	b8 ff ff ff ff       	mov    $0xffffffff,%eax
  403102:	e9 1e ff ff ff       	jmpq   403025 <init_driver+0xea>
  403107:	48 b8 45 72 72 6f 72 	movabs $0x55203a726f727245,%rax
  40310e:	3a 20 55 
  403111:	48 ba 6e 61 62 6c 65 	movabs $0x6f7420656c62616e,%rdx
  403118:	20 74 6f 
  40311b:	49 89 04 24          	mov    %rax,(%r12)
  40311f:	49 89 54 24 08       	mov    %rdx,0x8(%r12)
  403124:	48 b8 20 63 6f 6e 6e 	movabs $0x7463656e6e6f6320,%rax
  40312b:	65 63 74 
  40312e:	48 ba 20 74 6f 20 73 	movabs $0x76726573206f7420,%rdx
  403135:	65 72 76 
  403138:	49 89 44 24 10       	mov    %rax,0x10(%r12)
  40313d:	49 89 54 24 18       	mov    %rdx,0x18(%r12)
  403142:	66 41 c7 44 24 20 65 	movw   $0x7265,0x20(%r12)
  403149:	72 
  40314a:	41 c6 44 24 22 00    	movb   $0x0,0x22(%r12)
  403150:	89 df                	mov    %ebx,%edi
  403152:	e8 39 dc ff ff       	callq  400d90 <close@plt>
  403157:	b8 ff ff ff ff       	mov    $0xffffffff,%eax
  40315c:	e9 c4 fe ff ff       	jmpq   403025 <init_driver+0xea>
  403161:	e8 45 f1 ff ff       	callq  4022ab <__stack_chk_fail>

0000000000403166 <driver_post>:
  403166:	53                   	push   %rbx
  403167:	4c 89 cb             	mov    %r9,%rbx
  40316a:	45 85 c0             	test   %r8d,%r8d
  40316d:	75 18                	jne    403187 <driver_post+0x21>
  40316f:	48 85 ff             	test   %rdi,%rdi
  403172:	74 05                	je     403179 <driver_post+0x13>
  403174:	80 3f 00             	cmpb   $0x0,(%rdi)
  403177:	75 37                	jne    4031b0 <driver_post+0x4a>
  403179:	66 c7 03 4f 4b       	movw   $0x4b4f,(%rbx)
  40317e:	c6 43 02 00          	movb   $0x0,0x2(%rbx)
  403182:	44 89 c0             	mov    %r8d,%eax
  403185:	5b                   	pop    %rbx
  403186:	c3                   	retq   
  403187:	48 89 ca             	mov    %rcx,%rdx
  40318a:	48 8d 35 7b 09 00 00 	lea    0x97b(%rip),%rsi        # 403b0c <trans_char+0xfc>
  403191:	bf 01 00 00 00       	mov    $0x1,%edi
  403196:	b8 00 00 00 00       	mov    $0x0,%eax
  40319b:	e8 c0 dc ff ff       	callq  400e60 <__printf_chk@plt>
  4031a0:	66 c7 03 4f 4b       	movw   $0x4b4f,(%rbx)
  4031a5:	c6 43 02 00          	movb   $0x0,0x2(%rbx)
  4031a9:	b8 00 00 00 00       	mov    $0x0,%eax
  4031ae:	eb d5                	jmp    403185 <driver_post+0x1f>
  4031b0:	48 83 ec 08          	sub    $0x8,%rsp
  4031b4:	41 51                	push   %r9
  4031b6:	49 89 c9             	mov    %rcx,%r9
  4031b9:	49 89 d0             	mov    %rdx,%r8
  4031bc:	48 89 f9             	mov    %rdi,%rcx
  4031bf:	48 89 f2             	mov    %rsi,%rdx
  4031c2:	be b8 0b 00 00       	mov    $0xbb8,%esi
  4031c7:	48 8d 3d 2e 09 00 00 	lea    0x92e(%rip),%rdi        # 403afc <trans_char+0xec>
  4031ce:	e8 9c f5 ff ff       	callq  40276f <submitr>
  4031d3:	48 83 c4 10          	add    $0x10,%rsp
  4031d7:	eb ac                	jmp    403185 <driver_post+0x1f>

00000000004031d9 <check>:
  4031d9:	89 f8                	mov    %edi,%eax
  4031db:	c1 e8 1c             	shr    $0x1c,%eax
  4031de:	85 c0                	test   %eax,%eax
  4031e0:	74 1d                	je     4031ff <check+0x26>
  4031e2:	b9 00 00 00 00       	mov    $0x0,%ecx
  4031e7:	83 f9 1f             	cmp    $0x1f,%ecx
  4031ea:	7f 0d                	jg     4031f9 <check+0x20>
  4031ec:	89 f8                	mov    %edi,%eax
  4031ee:	d3 e8                	shr    %cl,%eax
  4031f0:	3c 0a                	cmp    $0xa,%al
  4031f2:	74 11                	je     403205 <check+0x2c>
  4031f4:	83 c1 08             	add    $0x8,%ecx
  4031f7:	eb ee                	jmp    4031e7 <check+0xe>
  4031f9:	b8 01 00 00 00       	mov    $0x1,%eax
  4031fe:	c3                   	retq   
  4031ff:	b8 00 00 00 00       	mov    $0x0,%eax
  403204:	c3                   	retq   
  403205:	b8 00 00 00 00       	mov    $0x0,%eax
  40320a:	c3                   	retq   

000000000040320b <gencookie>:
  40320b:	53                   	push   %rbx
  40320c:	83 c7 01             	add    $0x1,%edi
  40320f:	e8 ec da ff ff       	callq  400d00 <srandom@plt>
  403214:	e8 07 dc ff ff       	callq  400e20 <random@plt>
  403219:	89 c3                	mov    %eax,%ebx
  40321b:	89 c7                	mov    %eax,%edi
  40321d:	e8 b7 ff ff ff       	callq  4031d9 <check>
  403222:	85 c0                	test   %eax,%eax
  403224:	74 ee                	je     403214 <gencookie+0x9>
  403226:	89 d8                	mov    %ebx,%eax
  403228:	5b                   	pop    %rbx
  403229:	c3                   	retq   
  40322a:	66 0f 1f 44 00 00    	nopw   0x0(%rax,%rax,1)

0000000000403230 <__libc_csu_init>:
  403230:	41 57                	push   %r15
  403232:	41 56                	push   %r14
  403234:	49 89 d7             	mov    %rdx,%r15
  403237:	41 55                	push   %r13
  403239:	41 54                	push   %r12
  40323b:	4c 8d 25 be 1b 20 00 	lea    0x201bbe(%rip),%r12        # 604e00 <__frame_dummy_init_array_entry>
  403242:	55                   	push   %rbp
  403243:	48 8d 2d be 1b 20 00 	lea    0x201bbe(%rip),%rbp        # 604e08 <__init_array_end>
  40324a:	53                   	push   %rbx
  40324b:	41 89 fd             	mov    %edi,%r13d
  40324e:	49 89 f6             	mov    %rsi,%r14
  403251:	4c 29 e5             	sub    %r12,%rbp
  403254:	48 83 ec 08          	sub    $0x8,%rsp
  403258:	48 c1 fd 03          	sar    $0x3,%rbp
  40325c:	e8 4f da ff ff       	callq  400cb0 <_init>
  403261:	48 85 ed             	test   %rbp,%rbp
  403264:	74 20                	je     403286 <__libc_csu_init+0x56>
  403266:	31 db                	xor    %ebx,%ebx
  403268:	0f 1f 84 00 00 00 00 	nopl   0x0(%rax,%rax,1)
  40326f:	00 
  403270:	4c 89 fa             	mov    %r15,%rdx
  403273:	4c 89 f6             	mov    %r14,%rsi
  403276:	44 89 ef             	mov    %r13d,%edi
  403279:	41 ff 14 dc          	callq  *(%r12,%rbx,8)
  40327d:	48 83 c3 01          	add    $0x1,%rbx
  403281:	48 39 dd             	cmp    %rbx,%rbp
  403284:	75 ea                	jne    403270 <__libc_csu_init+0x40>
  403286:	48 83 c4 08          	add    $0x8,%rsp
  40328a:	5b                   	pop    %rbx
  40328b:	5d                   	pop    %rbp
  40328c:	41 5c                	pop    %r12
  40328e:	41 5d                	pop    %r13
  403290:	41 5e                	pop    %r14
  403292:	41 5f                	pop    %r15
  403294:	c3                   	retq   
  403295:	90                   	nop
  403296:	66 2e 0f 1f 84 00 00 	nopw   %cs:0x0(%rax,%rax,1)
  40329d:	00 00 00 

00000000004032a0 <__libc_csu_fini>:
  4032a0:	f3 c3                	repz retq 

Disassembly of section .fini:

00000000004032a4 <_fini>:
  4032a4:	48 83 ec 08          	sub    $0x8,%rsp
  4032a8:	48 83 c4 08          	add    $0x8,%rsp
  4032ac:	c3                   	retq   
